SF:/Users/dan/dev/simple_json_server/actor_attribute_macro/src/lib.rs
FN:168,_RNCNvCsdn9efktjjkB_21actor_attribute_macro25snake_case_to_pascal_case0B3_
FN:205,_RNCNvCsdn9efktjjkB_21actor_attribute_macro28generate_actor_documentation0B3_
FN:47,_RNCNvCsdn9efktjjkB_21actor_attribute_macro5actor0B3_
FN:326,_RNvCsdn9efktjjkB_21actor_attribute_macro18extract_method_doc
FN:148,_RNvCsdn9efktjjkB_21actor_attribute_macro21extract_method_params
FN:356,_RNvCsdn9efktjjkB_21actor_attribute_macro22generate_example_value
FN:137,_RNvCsdn9efktjjkB_21actor_attribute_macro22is_public_async_method
FN:166,_RNvCsdn9efktjjkB_21actor_attribute_macro25snake_case_to_pascal_case
FN:179,_RNvCsdn9efktjjkB_21actor_attribute_macro28generate_actor_documentation
FN:16,_RNvCsdn9efktjjkB_21actor_attribute_macro5actor
FN:168,_RNCNvCs1T8uZIona0F_21actor_attribute_macro25snake_case_to_pascal_case0B3_
FN:205,_RNCNvCs1T8uZIona0F_21actor_attribute_macro28generate_actor_documentation0B3_
FN:47,_RNCNvCs1T8uZIona0F_21actor_attribute_macro5actor0B3_
FN:326,_RNvCs1T8uZIona0F_21actor_attribute_macro18extract_method_doc
FN:148,_RNvCs1T8uZIona0F_21actor_attribute_macro21extract_method_params
FN:356,_RNvCs1T8uZIona0F_21actor_attribute_macro22generate_example_value
FN:137,_RNvCs1T8uZIona0F_21actor_attribute_macro22is_public_async_method
FN:166,_RNvCs1T8uZIona0F_21actor_attribute_macro25snake_case_to_pascal_case
FN:179,_RNvCs1T8uZIona0F_21actor_attribute_macro28generate_actor_documentation
FN:16,_RNvCs1T8uZIona0F_21actor_attribute_macro5actor
FNDA:0,_RNCNvCsdn9efktjjkB_21actor_attribute_macro25snake_case_to_pascal_case0B3_
FNDA:0,_RNCNvCsdn9efktjjkB_21actor_attribute_macro28generate_actor_documentation0B3_
FNDA:0,_RNCNvCsdn9efktjjkB_21actor_attribute_macro5actor0B3_
FNDA:0,_RNvCsdn9efktjjkB_21actor_attribute_macro18extract_method_doc
FNDA:0,_RNvCsdn9efktjjkB_21actor_attribute_macro21extract_method_params
FNDA:0,_RNvCsdn9efktjjkB_21actor_attribute_macro22generate_example_value
FNDA:0,_RNvCsdn9efktjjkB_21actor_attribute_macro22is_public_async_method
FNDA:0,_RNvCsdn9efktjjkB_21actor_attribute_macro25snake_case_to_pascal_case
FNDA:0,_RNvCsdn9efktjjkB_21actor_attribute_macro28generate_actor_documentation
FNDA:0,_RNvCsdn9efktjjkB_21actor_attribute_macro5actor
FNDA:15,_RNCNvCs1T8uZIona0F_21actor_attribute_macro25snake_case_to_pascal_case0B3_
FNDA:10,_RNCNvCs1T8uZIona0F_21actor_attribute_macro28generate_actor_documentation0B3_
FNDA:10,_RNCNvCs1T8uZIona0F_21actor_attribute_macro5actor0B3_
FNDA:12,_RNvCs1T8uZIona0F_21actor_attribute_macro18extract_method_doc
FNDA:36,_RNvCs1T8uZIona0F_21actor_attribute_macro21extract_method_params
FNDA:30,_RNvCs1T8uZIona0F_21actor_attribute_macro22generate_example_value
FNDA:14,_RNvCs1T8uZIona0F_21actor_attribute_macro22is_public_async_method
FNDA:12,_RNvCs1T8uZIona0F_21actor_attribute_macro25snake_case_to_pascal_case
FNDA:3,_RNvCs1T8uZIona0F_21actor_attribute_macro28generate_actor_documentation
FNDA:3,_RNvCs1T8uZIona0F_21actor_attribute_macro5actor
FNF:10
FNH:10
DA:16,3
DA:17,3
DA:20,3
DA:23,3
DA:24,3
DA:25,3
DA:27,17
DA:28,14
DA:29,14
DA:31,12
DA:32,12
DA:35,12
DA:38,12
DA:39,12
DA:40,12
DA:44,12
DA:45,7
DA:46,7
DA:47,10
DA:48,10
DA:49,10
DA:50,7
DA:52,7
DA:58,5
DA:59,5
DA:60,5
DA:61,5
DA:62,5
DA:63,5
DA:64,5
DA:67,12
DA:68,12
DA:69,5
DA:71,7
DA:74,12
DA:91,12
DA:92,2
DA:96,3
DA:99,3
DA:127,3
DA:133,3
DA:134,3
DA:137,14
DA:139,14
DA:142,14
DA:144,14
DA:145,14
DA:148,36
DA:149,36
DA:151,102
DA:152,66
DA:153,36
DA:154,30
DA:155,30
DA:156,30
DA:157,30
DA:162,36
DA:163,36
DA:166,12
DA:167,12
DA:168,15
DA:169,15
DA:170,15
DA:171,0
DA:172,15
DA:174,15
DA:175,12
DA:176,12
DA:179,3
DA:180,3
DA:183,3
DA:184,3
DA:185,3
DA:186,3
DA:187,3
DA:188,3
DA:192,3
DA:193,3
DA:195,15
DA:196,12
DA:197,12
DA:198,12
DA:200,12
DA:201,5
DA:203,7
DA:204,7
DA:205,10
DA:206,7
DA:207,7
DA:210,12
DA:211,0
DA:212,12
DA:215,12
DA:216,12
DA:217,12
DA:218,12
DA:222,15
DA:223,12
DA:224,12
DA:225,12
DA:226,12
DA:228,12
DA:229,12
DA:232,12
DA:233,6
DA:234,6
DA:237,12
DA:238,5
DA:239,5
DA:240,7
DA:241,17
DA:242,10
DA:243,10
DA:244,7
DA:248,12
DA:249,0
DA:250,12
DA:252,12
DA:255,12
DA:256,12
DA:257,12
DA:258,5
DA:259,5
DA:260,7
DA:261,10
DA:262,10
DA:263,10
DA:264,10
DA:266,7
DA:268,12
DA:271,12
DA:272,12
DA:273,12
DA:274,12
DA:275,12
DA:276,12
DA:277,12
DA:278,5
DA:279,5
DA:280,7
DA:281,10
DA:282,10
DA:283,10
DA:284,10
DA:286,7
DA:288,12
DA:289,12
DA:292,12
DA:293,12
DA:294,12
DA:295,5
DA:296,5
DA:297,5
DA:298,5
DA:299,5
DA:300,7
DA:301,7
DA:302,7
DA:303,7
DA:304,7
DA:305,4
DA:306,4
DA:307,4
DA:308,4
DA:309,3
DA:310,6
DA:311,6
DA:312,6
DA:313,6
DA:315,3
DA:317,7
DA:319,12
DA:322,3
DA:323,3
DA:326,12
DA:327,12
DA:329,18
DA:330,6
DA:331,6
DA:333,6
DA:335,6
DA:337,6
DA:339,6
DA:340,6
DA:342,0
DA:344,6
DA:345,0
DA:348,12
DA:349,6
DA:351,6
DA:353,12
DA:356,30
DA:357,30
DA:359,30
DA:360,30
DA:361,18
DA:362,18
DA:363,12
DA:364,12
DA:365,0
DA:366,0
DA:367,0
DA:368,0
DA:371,0
DA:372,0
DA:373,0
DA:374,0
DA:375,0
DA:376,0
DA:377,0
DA:378,0
DA:380,0
DA:384,30
BRF:0
BRH:0
LF:216
LH:198
end_of_record
SF:/Users/dan/dev/simple_json_server/simple_json_server/src/lib.rs
FN:177,_RNvYNtCsgvlvk5XtLsL_16integration_test10TestServerNtCsiGvdQYFt38B_18simple_json_server5Actor10create_wssB4_
FN:162,_RNvYNtCsgvlvk5XtLsL_16integration_test10TestServerNtCsiGvdQYFt38B_18simple_json_server5Actor12create_httpsB4_
FN:99,_RNvYNtCsgvlvk5XtLsL_16integration_test10TestServerNtCsiGvdQYFt38B_18simple_json_server5Actor14create_optionsB4_
FN:133,_RNvYNtCsgvlvk5XtLsL_16integration_test10TestServerNtCsiGvdQYFt38B_18simple_json_server5Actor6createB4_
FN:147,_RNvYNtCsgvlvk5XtLsL_16integration_test10TestServerNtCsiGvdQYFt38B_18simple_json_server5Actor9create_wsB4_
FN:199,_RINvCsiGvdQYFt38B_18simple_json_server17start_http_serverNtCsgvlvk5XtLsL_16integration_test10TestServerEBV_
FN:239,_RINvCsiGvdQYFt38B_18simple_json_server19handle_http_requestNtCsgvlvk5XtLsL_16integration_test10TestServerEBX_
FN:291,_RINvCsiGvdQYFt38B_18simple_json_server22start_websocket_serverNtCsgvlvk5XtLsL_16integration_test10TestServerEB10_
FN:489,_RINvCsiGvdQYFt38B_18simple_json_server23handle_https_connectionNtCsgvlvk5XtLsL_16integration_test10TestServerEB11_
FN:390,_RINvCsiGvdQYFt38B_18simple_json_server26start_http_server_with_tlsNtCsgvlvk5XtLsL_16integration_test10TestServerEB14_
FN:327,_RINvCsiGvdQYFt38B_18simple_json_server27handle_websocket_connectionNtCsgvlvk5XtLsL_16integration_test10TestServerINtNtCsexuXx4cToe6_12tokio_rustls6server9TlsStreamNtNtNtNtCse81VPYPZVCC_5tokio3net3tcp6stream9TcpStreamEEB15_
FN:327,_RINvCsiGvdQYFt38B_18simple_json_server27handle_websocket_connectionNtCsgvlvk5XtLsL_16integration_test10TestServerNtNtNtNtCse81VPYPZVCC_5tokio3net3tcp6stream9TcpStreamEB15_
FN:436,_RINvCsiGvdQYFt38B_18simple_json_server31start_websocket_server_with_tlsNtCsgvlvk5XtLsL_16integration_test10TestServerEB19_
FN:202,_RNCINvCsiGvdQYFt38B_18simple_json_server17start_http_serverNtCsgvlvk5XtLsL_16integration_test10TestServerE0BX_
FN:245,_RNCINvCsiGvdQYFt38B_18simple_json_server19handle_http_requestNtCsgvlvk5XtLsL_16integration_test10TestServerE0BZ_
FN:294,_RNCINvCsiGvdQYFt38B_18simple_json_server22start_websocket_serverNtCsgvlvk5XtLsL_16integration_test10TestServerE0B12_
FN:495,_RNCINvCsiGvdQYFt38B_18simple_json_server23handle_https_connectionNtCsgvlvk5XtLsL_16integration_test10TestServerE0B13_
FN:393,_RNCINvCsiGvdQYFt38B_18simple_json_server26start_http_server_with_tlsNtCsgvlvk5XtLsL_16integration_test10TestServerE0B16_
FN:334,_RNCINvCsiGvdQYFt38B_18simple_json_server27handle_websocket_connectionNtCsgvlvk5XtLsL_16integration_test10TestServerINtNtCsexuXx4cToe6_12tokio_rustls6server9TlsStreamNtNtNtNtCse81VPYPZVCC_5tokio3net3tcp6stream9TcpStreamEE0B17_
FN:334,_RNCINvCsiGvdQYFt38B_18simple_json_server27handle_websocket_connectionNtCsgvlvk5XtLsL_16integration_test10TestServerNtNtNtNtCse81VPYPZVCC_5tokio3net3tcp6stream9TcpStreamE0B17_
FN:439,_RNCINvCsiGvdQYFt38B_18simple_json_server31start_websocket_server_with_tlsNtCsgvlvk5XtLsL_16integration_test10TestServerE0B1b_
FN:204,_RNCNCINvCsiGvdQYFt38B_18simple_json_server17start_http_serverNtCsgvlvk5XtLsL_16integration_test10TestServerE00BZ_
FN:221,_RNCNCINvCsiGvdQYFt38B_18simple_json_server17start_http_serverNtCsgvlvk5XtLsL_16integration_test10TestServerE0s_0BZ_
FN:298,_RNCNCINvCsiGvdQYFt38B_18simple_json_server22start_websocket_serverNtCsgvlvk5XtLsL_16integration_test10TestServerE00B14_
FN:317,_RNCNCINvCsiGvdQYFt38B_18simple_json_server22start_websocket_serverNtCsgvlvk5XtLsL_16integration_test10TestServerE0s_0B14_
FN:498,_RNCNCINvCsiGvdQYFt38B_18simple_json_server23handle_https_connectionNtCsgvlvk5XtLsL_16integration_test10TestServerE00B15_
FN:415,_RNCNCINvCsiGvdQYFt38B_18simple_json_server26start_http_server_with_tlsNtCsgvlvk5XtLsL_16integration_test10TestServerE00B18_
FN:346,_RNCNCINvCsiGvdQYFt38B_18simple_json_server27handle_websocket_connectionNtCsgvlvk5XtLsL_16integration_test10TestServerINtNtCsexuXx4cToe6_12tokio_rustls6server9TlsStreamNtNtNtNtCse81VPYPZVCC_5tokio3net3tcp6stream9TcpStreamEE00B19_
FN:346,_RNCNCINvCsiGvdQYFt38B_18simple_json_server27handle_websocket_connectionNtCsgvlvk5XtLsL_16integration_test10TestServerNtNtNtNtCse81VPYPZVCC_5tokio3net3tcp6stream9TcpStreamE00B19_
FN:443,_RNCNCINvCsiGvdQYFt38B_18simple_json_server31start_websocket_server_with_tlsNtCsgvlvk5XtLsL_16integration_test10TestServerE00B1d_
FN:466,_RNCNCINvCsiGvdQYFt38B_18simple_json_server31start_websocket_server_with_tlsNtCsgvlvk5XtLsL_16integration_test10TestServerE0s_0B1d_
FN:223,_RNCNCNCINvCsiGvdQYFt38B_18simple_json_server17start_http_serverNtCsgvlvk5XtLsL_16integration_test10TestServerE0s_00B11_
FN:500,_RNCNCNCINvCsiGvdQYFt38B_18simple_json_server23handle_https_connectionNtCsgvlvk5XtLsL_16integration_test10TestServerE000B17_
FN:225,_RNCNCNCNCINvCsiGvdQYFt38B_18simple_json_server17start_http_serverNtCsgvlvk5XtLsL_16integration_test10TestServerE0s_000B13_
FN:107,_RNCNvYNtCsgvlvk5XtLsL_16integration_test10TestServerNtCsiGvdQYFt38B_18simple_json_server5Actor14create_options0B6_
FN:199,_RINvCsiGvdQYFt38B_18simple_json_server17start_http_serverpEB2_
FN:239,_RINvCsiGvdQYFt38B_18simple_json_server19handle_http_requestpEB2_
FN:291,_RINvCsiGvdQYFt38B_18simple_json_server22start_websocket_serverpEB2_
FN:489,_RINvCsiGvdQYFt38B_18simple_json_server23handle_https_connectionpEB2_
FN:390,_RINvCsiGvdQYFt38B_18simple_json_server26start_http_server_with_tlspEB2_
FN:327,_RINvCsiGvdQYFt38B_18simple_json_server27handle_websocket_connectionppEB2_
FN:436,_RINvCsiGvdQYFt38B_18simple_json_server31start_websocket_server_with_tlspEB2_
FN:202,_RNCINvCsiGvdQYFt38B_18simple_json_server17start_http_serverpE0B4_
FN:245,_RNCINvCsiGvdQYFt38B_18simple_json_server19handle_http_requestpE0B4_
FN:294,_RNCINvCsiGvdQYFt38B_18simple_json_server22start_websocket_serverpE0B4_
FN:495,_RNCINvCsiGvdQYFt38B_18simple_json_server23handle_https_connectionpE0B4_
FN:393,_RNCINvCsiGvdQYFt38B_18simple_json_server26start_http_server_with_tlspE0B4_
FN:334,_RNCINvCsiGvdQYFt38B_18simple_json_server27handle_websocket_connectionppE0B4_
FN:439,_RNCINvCsiGvdQYFt38B_18simple_json_server31start_websocket_server_with_tlspE0B4_
FN:204,_RNCNCINvCsiGvdQYFt38B_18simple_json_server17start_http_serverpE00B6_
FN:221,_RNCNCINvCsiGvdQYFt38B_18simple_json_server17start_http_serverpE0s_0B6_
FN:298,_RNCNCINvCsiGvdQYFt38B_18simple_json_server22start_websocket_serverpE00B6_
FN:317,_RNCNCINvCsiGvdQYFt38B_18simple_json_server22start_websocket_serverpE0s_0B6_
FN:498,_RNCNCINvCsiGvdQYFt38B_18simple_json_server23handle_https_connectionpE00B6_
FN:415,_RNCNCINvCsiGvdQYFt38B_18simple_json_server26start_http_server_with_tlspE00B6_
FN:346,_RNCNCINvCsiGvdQYFt38B_18simple_json_server27handle_websocket_connectionppE00B6_
FN:443,_RNCNCINvCsiGvdQYFt38B_18simple_json_server31start_websocket_server_with_tlspE00B6_
FN:466,_RNCNCINvCsiGvdQYFt38B_18simple_json_server31start_websocket_server_with_tlspE0s_0B6_
FN:223,_RNCNCNCINvCsiGvdQYFt38B_18simple_json_server17start_http_serverpE0s_00B8_
FN:500,_RNCNCNCINvCsiGvdQYFt38B_18simple_json_server23handle_https_connectionpE000B8_
FN:225,_RNCNCNCNCINvCsiGvdQYFt38B_18simple_json_server17start_http_serverpE0s_000Ba_
FN:107,_RNCNvYpNtCsiGvdQYFt38B_18simple_json_server5Actor14create_options0B7_
FN:177,_RNvYpNtCsiGvdQYFt38B_18simple_json_server5Actor10create_wssB5_
FN:162,_RNvYpNtCsiGvdQYFt38B_18simple_json_server5Actor12create_httpsB5_
FN:99,_RNvYpNtCsiGvdQYFt38B_18simple_json_server5Actor14create_optionsB5_
FN:133,_RNvYpNtCsiGvdQYFt38B_18simple_json_server5Actor6createB5_
FN:147,_RNvYpNtCsiGvdQYFt38B_18simple_json_server5Actor9create_wsB5_
FN:199,_RINvCs4liAAqcK7Yf_18simple_json_server17start_http_serverpEB2_
FN:239,_RINvCs4liAAqcK7Yf_18simple_json_server19handle_http_requestpEB2_
FN:291,_RINvCs4liAAqcK7Yf_18simple_json_server22start_websocket_serverpEB2_
FN:489,_RINvCs4liAAqcK7Yf_18simple_json_server23handle_https_connectionpEB2_
FN:390,_RINvCs4liAAqcK7Yf_18simple_json_server26start_http_server_with_tlspEB2_
FN:327,_RINvCs4liAAqcK7Yf_18simple_json_server27handle_websocket_connectionppEB2_
FN:436,_RINvCs4liAAqcK7Yf_18simple_json_server31start_websocket_server_with_tlspEB2_
FN:202,_RNCINvCs4liAAqcK7Yf_18simple_json_server17start_http_serverpE0B4_
FN:245,_RNCINvCs4liAAqcK7Yf_18simple_json_server19handle_http_requestpE0B4_
FN:294,_RNCINvCs4liAAqcK7Yf_18simple_json_server22start_websocket_serverpE0B4_
FN:495,_RNCINvCs4liAAqcK7Yf_18simple_json_server23handle_https_connectionpE0B4_
FN:393,_RNCINvCs4liAAqcK7Yf_18simple_json_server26start_http_server_with_tlspE0B4_
FN:334,_RNCINvCs4liAAqcK7Yf_18simple_json_server27handle_websocket_connectionppE0B4_
FN:439,_RNCINvCs4liAAqcK7Yf_18simple_json_server31start_websocket_server_with_tlspE0B4_
FN:204,_RNCNCINvCs4liAAqcK7Yf_18simple_json_server17start_http_serverpE00B6_
FN:221,_RNCNCINvCs4liAAqcK7Yf_18simple_json_server17start_http_serverpE0s_0B6_
FN:298,_RNCNCINvCs4liAAqcK7Yf_18simple_json_server22start_websocket_serverpE00B6_
FN:317,_RNCNCINvCs4liAAqcK7Yf_18simple_json_server22start_websocket_serverpE0s_0B6_
FN:498,_RNCNCINvCs4liAAqcK7Yf_18simple_json_server23handle_https_connectionpE00B6_
FN:415,_RNCNCINvCs4liAAqcK7Yf_18simple_json_server26start_http_server_with_tlspE00B6_
FN:346,_RNCNCINvCs4liAAqcK7Yf_18simple_json_server27handle_websocket_connectionppE00B6_
FN:443,_RNCNCINvCs4liAAqcK7Yf_18simple_json_server31start_websocket_server_with_tlspE00B6_
FN:466,_RNCNCINvCs4liAAqcK7Yf_18simple_json_server31start_websocket_server_with_tlspE0s_0B6_
FN:223,_RNCNCNCINvCs4liAAqcK7Yf_18simple_json_server17start_http_serverpE0s_00B8_
FN:500,_RNCNCNCINvCs4liAAqcK7Yf_18simple_json_server23handle_https_connectionpE000B8_
FN:225,_RNCNCNCNCINvCs4liAAqcK7Yf_18simple_json_server17start_http_serverpE0s_000Ba_
FN:107,_RNCNvYpNtCs4liAAqcK7Yf_18simple_json_server5Actor14create_options0B7_
FN:177,_RNvYpNtCs4liAAqcK7Yf_18simple_json_server5Actor10create_wssB5_
FN:162,_RNvYpNtCs4liAAqcK7Yf_18simple_json_server5Actor12create_httpsB5_
FN:99,_RNvYpNtCs4liAAqcK7Yf_18simple_json_server5Actor14create_optionsB5_
FN:133,_RNvYpNtCs4liAAqcK7Yf_18simple_json_server5Actor6createB5_
FN:147,_RNvYpNtCs4liAAqcK7Yf_18simple_json_server5Actor9create_wsB5_
FNDA:1,_RNvYNtCsgvlvk5XtLsL_16integration_test10TestServerNtCsiGvdQYFt38B_18simple_json_server5Actor10create_wssB4_
FNDA:1,_RNvYNtCsgvlvk5XtLsL_16integration_test10TestServerNtCsiGvdQYFt38B_18simple_json_server5Actor12create_httpsB4_
FNDA:8,_RNvYNtCsgvlvk5XtLsL_16integration_test10TestServerNtCsiGvdQYFt38B_18simple_json_server5Actor14create_optionsB4_
FNDA:2,_RNvYNtCsgvlvk5XtLsL_16integration_test10TestServerNtCsiGvdQYFt38B_18simple_json_server5Actor6createB4_
FNDA:4,_RNvYNtCsgvlvk5XtLsL_16integration_test10TestServerNtCsiGvdQYFt38B_18simple_json_server5Actor9create_wsB4_
FNDA:2,_RINvCsiGvdQYFt38B_18simple_json_server17start_http_serverNtCsgvlvk5XtLsL_16integration_test10TestServerEBV_
FNDA:17,_RINvCsiGvdQYFt38B_18simple_json_server19handle_http_requestNtCsgvlvk5XtLsL_16integration_test10TestServerEBX_
FNDA:4,_RINvCsiGvdQYFt38B_18simple_json_server22start_websocket_serverNtCsgvlvk5XtLsL_16integration_test10TestServerEB10_
FNDA:1,_RINvCsiGvdQYFt38B_18simple_json_server23handle_https_connectionNtCsgvlvk5XtLsL_16integration_test10TestServerEB11_
FNDA:1,_RINvCsiGvdQYFt38B_18simple_json_server26start_http_server_with_tlsNtCsgvlvk5XtLsL_16integration_test10TestServerEB14_
FNDA:1,_RINvCsiGvdQYFt38B_18simple_json_server27handle_websocket_connectionNtCsgvlvk5XtLsL_16integration_test10TestServerINtNtCsexuXx4cToe6_12tokio_rustls6server9TlsStreamNtNtNtNtCse81VPYPZVCC_5tokio3net3tcp6stream9TcpStreamEEB15_
FNDA:4,_RINvCsiGvdQYFt38B_18simple_json_server27handle_websocket_connectionNtCsgvlvk5XtLsL_16integration_test10TestServerNtNtNtNtCse81VPYPZVCC_5tokio3net3tcp6stream9TcpStreamEB15_
FNDA:1,_RINvCsiGvdQYFt38B_18simple_json_server31start_websocket_server_with_tlsNtCsgvlvk5XtLsL_16integration_test10TestServerEB19_
FNDA:2,_RNCINvCsiGvdQYFt38B_18simple_json_server17start_http_serverNtCsgvlvk5XtLsL_16integration_test10TestServerE0BX_
FNDA:17,_RNCINvCsiGvdQYFt38B_18simple_json_server19handle_http_requestNtCsgvlvk5XtLsL_16integration_test10TestServerE0BZ_
FNDA:4,_RNCINvCsiGvdQYFt38B_18simple_json_server22start_websocket_serverNtCsgvlvk5XtLsL_16integration_test10TestServerE0B12_
FNDA:1,_RNCINvCsiGvdQYFt38B_18simple_json_server23handle_https_connectionNtCsgvlvk5XtLsL_16integration_test10TestServerE0B13_
FNDA:1,_RNCINvCsiGvdQYFt38B_18simple_json_server26start_http_server_with_tlsNtCsgvlvk5XtLsL_16integration_test10TestServerE0B16_
FNDA:1,_RNCINvCsiGvdQYFt38B_18simple_json_server27handle_websocket_connectionNtCsgvlvk5XtLsL_16integration_test10TestServerINtNtCsexuXx4cToe6_12tokio_rustls6server9TlsStreamNtNtNtNtCse81VPYPZVCC_5tokio3net3tcp6stream9TcpStreamEE0B17_
FNDA:4,_RNCINvCsiGvdQYFt38B_18simple_json_server27handle_websocket_connectionNtCsgvlvk5XtLsL_16integration_test10TestServerNtNtNtNtCse81VPYPZVCC_5tokio3net3tcp6stream9TcpStreamE0B17_
FNDA:1,_RNCINvCsiGvdQYFt38B_18simple_json_server31start_websocket_server_with_tlsNtCsgvlvk5XtLsL_16integration_test10TestServerE0B1b_
FNDA:0,_RNCNCINvCsiGvdQYFt38B_18simple_json_server17start_http_serverNtCsgvlvk5XtLsL_16integration_test10TestServerE00BZ_
FNDA:2,_RNCNCINvCsiGvdQYFt38B_18simple_json_server17start_http_serverNtCsgvlvk5XtLsL_16integration_test10TestServerE0s_0BZ_
FNDA:0,_RNCNCINvCsiGvdQYFt38B_18simple_json_server22start_websocket_serverNtCsgvlvk5XtLsL_16integration_test10TestServerE00B14_
FNDA:4,_RNCNCINvCsiGvdQYFt38B_18simple_json_server22start_websocket_serverNtCsgvlvk5XtLsL_16integration_test10TestServerE0s_0B14_
FNDA:3,_RNCNCINvCsiGvdQYFt38B_18simple_json_server23handle_https_connectionNtCsgvlvk5XtLsL_16integration_test10TestServerE00B15_
FNDA:1,_RNCNCINvCsiGvdQYFt38B_18simple_json_server26start_http_server_with_tlsNtCsgvlvk5XtLsL_16integration_test10TestServerE00B18_
FNDA:3,_RNCNCINvCsiGvdQYFt38B_18simple_json_server27handle_websocket_connectionNtCsgvlvk5XtLsL_16integration_test10TestServerINtNtCsexuXx4cToe6_12tokio_rustls6server9TlsStreamNtNtNtNtCse81VPYPZVCC_5tokio3net3tcp6stream9TcpStreamEE00B19_
FNDA:7,_RNCNCINvCsiGvdQYFt38B_18simple_json_server27handle_websocket_connectionNtCsgvlvk5XtLsL_16integration_test10TestServerNtNtNtNtCse81VPYPZVCC_5tokio3net3tcp6stream9TcpStreamE00B19_
FNDA:0,_RNCNCINvCsiGvdQYFt38B_18simple_json_server31start_websocket_server_with_tlsNtCsgvlvk5XtLsL_16integration_test10TestServerE00B1d_
FNDA:1,_RNCNCINvCsiGvdQYFt38B_18simple_json_server31start_websocket_server_with_tlsNtCsgvlvk5XtLsL_16integration_test10TestServerE0s_0B1d_
FNDA:14,_RNCNCNCINvCsiGvdQYFt38B_18simple_json_server17start_http_serverNtCsgvlvk5XtLsL_16integration_test10TestServerE0s_00B11_
FNDA:3,_RNCNCNCINvCsiGvdQYFt38B_18simple_json_server23handle_https_connectionNtCsgvlvk5XtLsL_16integration_test10TestServerE000B17_
FNDA:14,_RNCNCNCNCINvCsiGvdQYFt38B_18simple_json_server17start_http_serverNtCsgvlvk5XtLsL_16integration_test10TestServerE0s_000B13_
FNDA:8,_RNCNvYNtCsgvlvk5XtLsL_16integration_test10TestServerNtCsiGvdQYFt38B_18simple_json_server5Actor14create_options0B6_
FNDA:0,_RINvCsiGvdQYFt38B_18simple_json_server17start_http_serverpEB2_
FNDA:0,_RINvCsiGvdQYFt38B_18simple_json_server19handle_http_requestpEB2_
FNDA:0,_RINvCsiGvdQYFt38B_18simple_json_server22start_websocket_serverpEB2_
FNDA:0,_RINvCsiGvdQYFt38B_18simple_json_server23handle_https_connectionpEB2_
FNDA:0,_RINvCsiGvdQYFt38B_18simple_json_server26start_http_server_with_tlspEB2_
FNDA:0,_RINvCsiGvdQYFt38B_18simple_json_server27handle_websocket_connectionppEB2_
FNDA:0,_RINvCsiGvdQYFt38B_18simple_json_server31start_websocket_server_with_tlspEB2_
FNDA:0,_RNCINvCsiGvdQYFt38B_18simple_json_server17start_http_serverpE0B4_
FNDA:0,_RNCINvCsiGvdQYFt38B_18simple_json_server19handle_http_requestpE0B4_
FNDA:0,_RNCINvCsiGvdQYFt38B_18simple_json_server22start_websocket_serverpE0B4_
FNDA:0,_RNCINvCsiGvdQYFt38B_18simple_json_server23handle_https_connectionpE0B4_
FNDA:0,_RNCINvCsiGvdQYFt38B_18simple_json_server26start_http_server_with_tlspE0B4_
FNDA:0,_RNCINvCsiGvdQYFt38B_18simple_json_server27handle_websocket_connectionppE0B4_
FNDA:0,_RNCINvCsiGvdQYFt38B_18simple_json_server31start_websocket_server_with_tlspE0B4_
FNDA:0,_RNCNCINvCsiGvdQYFt38B_18simple_json_server17start_http_serverpE00B6_
FNDA:0,_RNCNCINvCsiGvdQYFt38B_18simple_json_server17start_http_serverpE0s_0B6_
FNDA:0,_RNCNCINvCsiGvdQYFt38B_18simple_json_server22start_websocket_serverpE00B6_
FNDA:0,_RNCNCINvCsiGvdQYFt38B_18simple_json_server22start_websocket_serverpE0s_0B6_
FNDA:0,_RNCNCINvCsiGvdQYFt38B_18simple_json_server23handle_https_connectionpE00B6_
FNDA:0,_RNCNCINvCsiGvdQYFt38B_18simple_json_server26start_http_server_with_tlspE00B6_
FNDA:0,_RNCNCINvCsiGvdQYFt38B_18simple_json_server27handle_websocket_connectionppE00B6_
FNDA:0,_RNCNCINvCsiGvdQYFt38B_18simple_json_server31start_websocket_server_with_tlspE00B6_
FNDA:0,_RNCNCINvCsiGvdQYFt38B_18simple_json_server31start_websocket_server_with_tlspE0s_0B6_
FNDA:0,_RNCNCNCINvCsiGvdQYFt38B_18simple_json_server17start_http_serverpE0s_00B8_
FNDA:0,_RNCNCNCINvCsiGvdQYFt38B_18simple_json_server23handle_https_connectionpE000B8_
FNDA:0,_RNCNCNCNCINvCsiGvdQYFt38B_18simple_json_server17start_http_serverpE0s_000Ba_
FNDA:0,_RNCNvYpNtCsiGvdQYFt38B_18simple_json_server5Actor14create_options0B7_
FNDA:0,_RNvYpNtCsiGvdQYFt38B_18simple_json_server5Actor10create_wssB5_
FNDA:0,_RNvYpNtCsiGvdQYFt38B_18simple_json_server5Actor12create_httpsB5_
FNDA:0,_RNvYpNtCsiGvdQYFt38B_18simple_json_server5Actor14create_optionsB5_
FNDA:0,_RNvYpNtCsiGvdQYFt38B_18simple_json_server5Actor6createB5_
FNDA:0,_RNvYpNtCsiGvdQYFt38B_18simple_json_server5Actor9create_wsB5_
FNDA:0,_RINvCs4liAAqcK7Yf_18simple_json_server17start_http_serverpEB2_
FNDA:0,_RINvCs4liAAqcK7Yf_18simple_json_server19handle_http_requestpEB2_
FNDA:0,_RINvCs4liAAqcK7Yf_18simple_json_server22start_websocket_serverpEB2_
FNDA:0,_RINvCs4liAAqcK7Yf_18simple_json_server23handle_https_connectionpEB2_
FNDA:0,_RINvCs4liAAqcK7Yf_18simple_json_server26start_http_server_with_tlspEB2_
FNDA:0,_RINvCs4liAAqcK7Yf_18simple_json_server27handle_websocket_connectionppEB2_
FNDA:0,_RINvCs4liAAqcK7Yf_18simple_json_server31start_websocket_server_with_tlspEB2_
FNDA:0,_RNCINvCs4liAAqcK7Yf_18simple_json_server17start_http_serverpE0B4_
FNDA:0,_RNCINvCs4liAAqcK7Yf_18simple_json_server19handle_http_requestpE0B4_
FNDA:0,_RNCINvCs4liAAqcK7Yf_18simple_json_server22start_websocket_serverpE0B4_
FNDA:0,_RNCINvCs4liAAqcK7Yf_18simple_json_server23handle_https_connectionpE0B4_
FNDA:0,_RNCINvCs4liAAqcK7Yf_18simple_json_server26start_http_server_with_tlspE0B4_
FNDA:0,_RNCINvCs4liAAqcK7Yf_18simple_json_server27handle_websocket_connectionppE0B4_
FNDA:0,_RNCINvCs4liAAqcK7Yf_18simple_json_server31start_websocket_server_with_tlspE0B4_
FNDA:0,_RNCNCINvCs4liAAqcK7Yf_18simple_json_server17start_http_serverpE00B6_
FNDA:0,_RNCNCINvCs4liAAqcK7Yf_18simple_json_server17start_http_serverpE0s_0B6_
FNDA:0,_RNCNCINvCs4liAAqcK7Yf_18simple_json_server22start_websocket_serverpE00B6_
FNDA:0,_RNCNCINvCs4liAAqcK7Yf_18simple_json_server22start_websocket_serverpE0s_0B6_
FNDA:0,_RNCNCINvCs4liAAqcK7Yf_18simple_json_server23handle_https_connectionpE00B6_
FNDA:0,_RNCNCINvCs4liAAqcK7Yf_18simple_json_server26start_http_server_with_tlspE00B6_
FNDA:0,_RNCNCINvCs4liAAqcK7Yf_18simple_json_server27handle_websocket_connectionppE00B6_
FNDA:0,_RNCNCINvCs4liAAqcK7Yf_18simple_json_server31start_websocket_server_with_tlspE00B6_
FNDA:0,_RNCNCINvCs4liAAqcK7Yf_18simple_json_server31start_websocket_server_with_tlspE0s_0B6_
FNDA:0,_RNCNCNCINvCs4liAAqcK7Yf_18simple_json_server17start_http_serverpE0s_00B8_
FNDA:0,_RNCNCNCINvCs4liAAqcK7Yf_18simple_json_server23handle_https_connectionpE000B8_
FNDA:0,_RNCNCNCNCINvCs4liAAqcK7Yf_18simple_json_server17start_http_serverpE0s_000Ba_
FNDA:0,_RNCNvYpNtCs4liAAqcK7Yf_18simple_json_server5Actor14create_options0B7_
FNDA:0,_RNvYpNtCs4liAAqcK7Yf_18simple_json_server5Actor10create_wssB5_
FNDA:0,_RNvYpNtCs4liAAqcK7Yf_18simple_json_server5Actor12create_httpsB5_
FNDA:0,_RNvYpNtCs4liAAqcK7Yf_18simple_json_server5Actor14create_optionsB5_
FNDA:0,_RNvYpNtCs4liAAqcK7Yf_18simple_json_server5Actor6createB5_
FNDA:0,_RNvYpNtCs4liAAqcK7Yf_18simple_json_server5Actor9create_wsB5_
FNF:32
FNH:29
DA:99,8
DA:100,8
DA:101,8
DA:103,8
DA:106,8
DA:107,8
DA:108,8
DA:109,1
DA:110,1
DA:113,4
DA:115,1
DA:116,1
DA:119,2
DA:122,0
DA:123,8
DA:133,2
DA:134,2
DA:135,2
DA:137,2
DA:138,2
DA:147,4
DA:148,4
DA:149,4
DA:151,4
DA:152,4
DA:162,1
DA:163,1
DA:164,1
DA:166,1
DA:167,1
DA:177,1
DA:178,1
DA:179,1
DA:181,1
DA:182,1
DA:199,2
DA:200,2
DA:201,2
DA:202,2
DA:203,2
DA:204,2
DA:205,0
DA:208,2
DA:211,4
DA:212,2
DA:213,0
DA:214,0
DA:215,0
DA:219,2
DA:221,2
DA:222,2
DA:223,14
DA:224,14
DA:225,14
DA:226,14
DA:228,2
DA:229,2
DA:230,2
DA:232,0
DA:233,0
DA:234,0
DA:239,17
DA:240,17
DA:241,17
DA:242,17
DA:243,17
DA:244,17
DA:245,17
DA:246,17
DA:247,17
DA:250,17
DA:251,17
DA:252,17
DA:254,0
DA:255,0
DA:256,0
DA:257,0
DA:261,0
DA:262,0
DA:263,0
DA:264,0
DA:269,17
DA:271,13
DA:274,13
DA:276,13
DA:277,13
DA:278,13
DA:279,13
DA:280,13
DA:282,4
DA:283,4
DA:284,4
DA:285,4
DA:286,4
DA:288,17
DA:291,4
DA:292,4
DA:293,4
DA:294,4
DA:295,4
DA:296,4
DA:297,4
DA:298,4
DA:299,0
DA:300,0
DA:305,4
DA:308,8
DA:309,4
DA:310,0
DA:311,0
DA:312,0
DA:316,4
DA:317,4
DA:319,4
DA:320,0
DA:321,1
DA:322,1
DA:327,5
DA:328,5
DA:329,5
DA:330,5
DA:331,5
DA:332,5
DA:333,5
DA:334,5
DA:335,5
DA:336,5
DA:338,19
DA:339,15
DA:340,12
DA:342,12
DA:343,11
DA:345,9
DA:346,11
DA:347,11
DA:349,9
DA:350,9
DA:352,9
DA:353,0
DA:354,0
DA:355,9
DA:357,2
DA:358,2
DA:359,2
DA:361,2
DA:362,0
DA:363,0
DA:364,2
DA:367,1
DA:368,1
DA:370,1
DA:371,0
DA:372,0
DA:373,1
DA:378,1
DA:380,2
DA:381,2
DA:382,2
DA:386,1
DA:387,1
DA:390,1
DA:391,1
DA:392,1
DA:393,1
DA:395,1
DA:396,1
DA:397,1
DA:398,1
DA:399,1
DA:401,1
DA:404,2
DA:405,1
DA:406,0
DA:407,0
DA:408,0
DA:412,1
DA:413,1
DA:415,1
DA:416,1
DA:417,1
DA:418,1
DA:419,0
DA:420,0
DA:422,0
DA:423,0
DA:426,0
DA:429,0
DA:430,0
DA:433,0
DA:436,1
DA:437,1
DA:438,1
DA:439,1
DA:440,1
DA:441,1
DA:442,1
DA:443,1
DA:444,0
DA:448,1
DA:449,1
DA:450,1
DA:452,1
DA:455,2
DA:456,1
DA:457,0
DA:458,0
DA:459,0
DA:463,1
DA:464,1
DA:466,1
DA:467,1
DA:468,1
DA:469,0
DA:470,1
DA:472,0
DA:473,0
DA:475,0
DA:476,0
DA:479,0
DA:482,0
DA:483,0
DA:486,0
DA:489,1
DA:490,1
DA:491,1
DA:492,1
DA:493,1
DA:494,1
DA:495,1
DA:496,1
DA:498,3
DA:499,3
DA:500,3
DA:501,3
DA:504,1
DA:505,1
DA:506,1
DA:508,0
DA:509,0
DA:511,0
DA:512,0
BRF:0
BRH:0
LF:252
LH:193
end_of_record
SF:/Users/dan/dev/simple_json_server/simple_json_server/src/test_actor.rs
FN:34,_RNCNvMs1_NtCs4liAAqcK7Yf_18simple_json_server10test_actorNtB7_9TestActor14private_method0B9_
FN:40,_RNvMs1_NtCs4liAAqcK7Yf_18simple_json_server10test_actorNtB5_9TestActor11sync_method
FN:34,_RNvMs1_NtCs4liAAqcK7Yf_18simple_json_server10test_actorNtB5_9TestActor14private_method
FN:20,_RNCNvMs1_NtCs4liAAqcK7Yf_18simple_json_server10test_actorNtB7_9TestActor11get_counter0B9_
FN:16,_RNCNvMs1_NtCs4liAAqcK7Yf_18simple_json_server10test_actorNtB7_9TestActor3add0B9_
FN:24,_RNCNvMs1_NtCs4liAAqcK7Yf_18simple_json_server10test_actorNtB7_9TestActor5greet0B9_
FN:28,_RNCNvMs1_NtCs4liAAqcK7Yf_18simple_json_server10test_actorNtB7_9TestActor9no_params0B9_
FN:50,_RNvNtNtCs4liAAqcK7Yf_18simple_json_server10test_actor5testss_15test_add_method
FN:66,_RNvNtNtCs4liAAqcK7Yf_18simple_json_server10test_actor5testss_17test_greet_method
FN:90,_RNvNtNtCs4liAAqcK7Yf_18simple_json_server10test_actor5testss_17test_invalid_json
FN:82,_RNvNtNtCs4liAAqcK7Yf_18simple_json_server10test_actor5testss_19test_unknown_method
FN:74,_RNvNtNtCs4liAAqcK7Yf_18simple_json_server10test_actor5testss_21test_no_params_method
FN:58,_RNvNtNtCs4liAAqcK7Yf_18simple_json_server10test_actor5testss_23test_get_counter_method
FN:50,_RNCNvNtNtCs4liAAqcK7Yf_18simple_json_server10test_actor5testss_15test_add_method0B7_
FN:66,_RNCNvNtNtCs4liAAqcK7Yf_18simple_json_server10test_actor5testss_17test_greet_method0B7_
FN:90,_RNCNvNtNtCs4liAAqcK7Yf_18simple_json_server10test_actor5testss_17test_invalid_json0B7_
FN:82,_RNCNvNtNtCs4liAAqcK7Yf_18simple_json_server10test_actor5testss_19test_unknown_method0B7_
FN:74,_RNCNvNtNtCs4liAAqcK7Yf_18simple_json_server10test_actor5testss_21test_no_params_method0B7_
FN:58,_RNCNvNtNtCs4liAAqcK7Yf_18simple_json_server10test_actor5testss_23test_get_counter_method0B7_
FN:9,_RNvMNtCs4liAAqcK7Yf_18simple_json_server10test_actorNtB2_9TestActor3new
FN:20,_RNvMs1_NtCs4liAAqcK7Yf_18simple_json_server10test_actorNtB5_9TestActor11get_counter
FN:16,_RNvMs1_NtCs4liAAqcK7Yf_18simple_json_server10test_actorNtB5_9TestActor3add
FN:24,_RNvMs1_NtCs4liAAqcK7Yf_18simple_json_server10test_actorNtB5_9TestActor5greet
FN:28,_RNvMs1_NtCs4liAAqcK7Yf_18simple_json_server10test_actorNtB5_9TestActor9no_params
FNDA:0,_RNCNvMs1_NtCs4liAAqcK7Yf_18simple_json_server10test_actorNtB7_9TestActor14private_method0B9_
FNDA:0,_RNvMs1_NtCs4liAAqcK7Yf_18simple_json_server10test_actorNtB5_9TestActor11sync_method
FNDA:0,_RNvMs1_NtCs4liAAqcK7Yf_18simple_json_server10test_actorNtB5_9TestActor14private_method
FNDA:1,_RNCNvMs1_NtCs4liAAqcK7Yf_18simple_json_server10test_actorNtB7_9TestActor11get_counter0B9_
FNDA:1,_RNCNvMs1_NtCs4liAAqcK7Yf_18simple_json_server10test_actorNtB7_9TestActor3add0B9_
FNDA:1,_RNCNvMs1_NtCs4liAAqcK7Yf_18simple_json_server10test_actorNtB7_9TestActor5greet0B9_
FNDA:1,_RNCNvMs1_NtCs4liAAqcK7Yf_18simple_json_server10test_actorNtB7_9TestActor9no_params0B9_
FNDA:1,_RNvNtNtCs4liAAqcK7Yf_18simple_json_server10test_actor5testss_15test_add_method
FNDA:1,_RNvNtNtCs4liAAqcK7Yf_18simple_json_server10test_actor5testss_17test_greet_method
FNDA:1,_RNvNtNtCs4liAAqcK7Yf_18simple_json_server10test_actor5testss_17test_invalid_json
FNDA:1,_RNvNtNtCs4liAAqcK7Yf_18simple_json_server10test_actor5testss_19test_unknown_method
FNDA:1,_RNvNtNtCs4liAAqcK7Yf_18simple_json_server10test_actor5testss_21test_no_params_method
FNDA:1,_RNvNtNtCs4liAAqcK7Yf_18simple_json_server10test_actor5testss_23test_get_counter_method
FNDA:1,_RNCNvNtNtCs4liAAqcK7Yf_18simple_json_server10test_actor5testss_15test_add_method0B7_
FNDA:1,_RNCNvNtNtCs4liAAqcK7Yf_18simple_json_server10test_actor5testss_17test_greet_method0B7_
FNDA:1,_RNCNvNtNtCs4liAAqcK7Yf_18simple_json_server10test_actor5testss_17test_invalid_json0B7_
FNDA:1,_RNCNvNtNtCs4liAAqcK7Yf_18simple_json_server10test_actor5testss_19test_unknown_method0B7_
FNDA:1,_RNCNvNtNtCs4liAAqcK7Yf_18simple_json_server10test_actor5testss_21test_no_params_method0B7_
FNDA:1,_RNCNvNtNtCs4liAAqcK7Yf_18simple_json_server10test_actor5testss_23test_get_counter_method0B7_
FNDA:6,_RNvMNtCs4liAAqcK7Yf_18simple_json_server10test_actorNtB2_9TestActor3new
FNDA:1,_RNvMs1_NtCs4liAAqcK7Yf_18simple_json_server10test_actorNtB5_9TestActor11get_counter
FNDA:1,_RNvMs1_NtCs4liAAqcK7Yf_18simple_json_server10test_actorNtB5_9TestActor3add
FNDA:1,_RNvMs1_NtCs4liAAqcK7Yf_18simple_json_server10test_actorNtB5_9TestActor5greet
FNDA:1,_RNvMs1_NtCs4liAAqcK7Yf_18simple_json_server10test_actorNtB5_9TestActor9no_params
FNF:24
FNH:21
DA:9,6
DA:10,6
DA:11,6
DA:16,1
DA:17,1
DA:18,1
DA:20,1
DA:21,1
DA:22,1
DA:24,1
DA:25,1
DA:26,1
DA:28,1
DA:29,1
DA:30,1
DA:34,0
DA:35,0
DA:36,0
DA:40,0
DA:41,0
DA:42,0
DA:50,1
DA:51,1
DA:52,1
DA:53,1
DA:54,1
DA:55,1
DA:58,1
DA:59,1
DA:60,1
DA:61,1
DA:62,1
DA:63,1
DA:66,1
DA:67,1
DA:68,1
DA:69,1
DA:70,1
DA:71,1
DA:74,1
DA:75,1
DA:76,1
DA:77,1
DA:78,1
DA:79,1
DA:82,1
DA:83,1
DA:84,1
DA:85,1
DA:86,1
DA:87,1
DA:90,1
DA:91,1
DA:92,1
DA:93,1
DA:94,1
DA:95,1
BRF:0
BRH:0
LF:74
LH:67
end_of_record
SF:/Users/dan/dev/simple_json_server/simple_json_server/src/tls.rs
FN:20,_RINvMNtCsiGvdQYFt38B_18simple_json_server3tlsNtB3_9TlsConfig3newNtNtCs1AhsD0INetT_5alloc6string6StringB10_ECsgvlvk5XtLsL_16integration_test
FN:20,_RINvMNtCsiGvdQYFt38B_18simple_json_server3tlsNtB3_9TlsConfig3newRNtNtCs1AhsD0INetT_5alloc6string6StringB10_ECsgvlvk5XtLsL_16integration_test
FN:30,_RNCNvMNtCsiGvdQYFt38B_18simple_json_server3tlsNtB4_9TlsConfig18load_server_config0Csgvlvk5XtLsL_16integration_test
FN:28,_RNvMNtCsiGvdQYFt38B_18simple_json_server3tlsNtB2_9TlsConfig18load_server_config
FN:20,_RINvMNtCsiGvdQYFt38B_18simple_json_server3tlsNtB3_9TlsConfig3newppEB5_
FN:30,_RNCNvMNtCsiGvdQYFt38B_18simple_json_server3tlsNtB4_9TlsConfig18load_server_config0B6_
FN:20,_RINvMNtCs4liAAqcK7Yf_18simple_json_server3tlsNtB3_9TlsConfig3newppEB5_
FN:30,_RNCNvMNtCs4liAAqcK7Yf_18simple_json_server3tlsNtB4_9TlsConfig18load_server_config0B6_
FN:28,_RNvMNtCs4liAAqcK7Yf_18simple_json_server3tlsNtB2_9TlsConfig18load_server_config
FNDA:1,_RINvMNtCsiGvdQYFt38B_18simple_json_server3tlsNtB3_9TlsConfig3newNtNtCs1AhsD0INetT_5alloc6string6StringB10_ECsgvlvk5XtLsL_16integration_test
FNDA:1,_RINvMNtCsiGvdQYFt38B_18simple_json_server3tlsNtB3_9TlsConfig3newRNtNtCs1AhsD0INetT_5alloc6string6StringB10_ECsgvlvk5XtLsL_16integration_test
FNDA:2,_RNCNvMNtCsiGvdQYFt38B_18simple_json_server3tlsNtB4_9TlsConfig18load_server_config0Csgvlvk5XtLsL_16integration_test
FNDA:2,_RNvMNtCsiGvdQYFt38B_18simple_json_server3tlsNtB2_9TlsConfig18load_server_config
FNDA:0,_RINvMNtCsiGvdQYFt38B_18simple_json_server3tlsNtB3_9TlsConfig3newppEB5_
FNDA:0,_RNCNvMNtCsiGvdQYFt38B_18simple_json_server3tlsNtB4_9TlsConfig18load_server_config0B6_
FNDA:0,_RINvMNtCs4liAAqcK7Yf_18simple_json_server3tlsNtB3_9TlsConfig3newppEB5_
FNDA:0,_RNCNvMNtCs4liAAqcK7Yf_18simple_json_server3tlsNtB4_9TlsConfig18load_server_config0B6_
FNDA:0,_RNvMNtCs4liAAqcK7Yf_18simple_json_server3tlsNtB2_9TlsConfig18load_server_config
FNF:3
FNH:3
DA:20,2
DA:21,2
DA:22,2
DA:23,2
DA:24,2
DA:25,2
DA:28,2
DA:29,2
DA:30,2
DA:37,2
DA:38,2
DA:39,2
DA:40,2
DA:41,2
DA:42,2
DA:45,2
DA:46,2
DA:47,2
DA:48,2
DA:49,2
DA:50,2
DA:51,2
DA:52,2
DA:53,2
DA:55,2
DA:56,0
DA:57,2
DA:59,2
DA:62,2
DA:63,2
DA:64,2
DA:66,2
DA:67,2
BRF:0
BRH:0
LF:34
LH:33
end_of_record