SF:/Users/dan/dev/simple_json_server/actor_attribute_macro/src/lib.rs
FN:168,_RNCNvCs12mF0EAWhMz_21actor_attribute_macro25snake_case_to_pascal_case0B3_
FN:205,_RNCNvCs12mF0EAWhMz_21actor_attribute_macro28generate_actor_documentation0B3_
FN:47,_RNCNvCs12mF0EAWhMz_21actor_attribute_macro5actor0B3_
FN:305,_RNvCs12mF0EAWhMz_21actor_attribute_macro18extract_method_doc
FN:148,_RNvCs12mF0EAWhMz_21actor_attribute_macro21extract_method_params
FN:335,_RNvCs12mF0EAWhMz_21actor_attribute_macro22generate_example_value
FN:137,_RNvCs12mF0EAWhMz_21actor_attribute_macro22is_public_async_method
FN:166,_RNvCs12mF0EAWhMz_21actor_attribute_macro25snake_case_to_pascal_case
FN:179,_RNvCs12mF0EAWhMz_21actor_attribute_macro28generate_actor_documentation
FN:16,_RNvCs12mF0EAWhMz_21actor_attribute_macro5actor
FN:168,_RNCNvCs2XALaSQRAYq_21actor_attribute_macro25snake_case_to_pascal_case0B3_
FN:205,_RNCNvCs2XALaSQRAYq_21actor_attribute_macro28generate_actor_documentation0B3_
FN:47,_RNCNvCs2XALaSQRAYq_21actor_attribute_macro5actor0B3_
FN:305,_RNvCs2XALaSQRAYq_21actor_attribute_macro18extract_method_doc
FN:148,_RNvCs2XALaSQRAYq_21actor_attribute_macro21extract_method_params
FN:335,_RNvCs2XALaSQRAYq_21actor_attribute_macro22generate_example_value
FN:137,_RNvCs2XALaSQRAYq_21actor_attribute_macro22is_public_async_method
FN:166,_RNvCs2XALaSQRAYq_21actor_attribute_macro25snake_case_to_pascal_case
FN:179,_RNvCs2XALaSQRAYq_21actor_attribute_macro28generate_actor_documentation
FN:16,_RNvCs2XALaSQRAYq_21actor_attribute_macro5actor
FNDA:0,_RNCNvCs12mF0EAWhMz_21actor_attribute_macro25snake_case_to_pascal_case0B3_
FNDA:0,_RNCNvCs12mF0EAWhMz_21actor_attribute_macro28generate_actor_documentation0B3_
FNDA:0,_RNCNvCs12mF0EAWhMz_21actor_attribute_macro5actor0B3_
FNDA:0,_RNvCs12mF0EAWhMz_21actor_attribute_macro18extract_method_doc
FNDA:0,_RNvCs12mF0EAWhMz_21actor_attribute_macro21extract_method_params
FNDA:0,_RNvCs12mF0EAWhMz_21actor_attribute_macro22generate_example_value
FNDA:0,_RNvCs12mF0EAWhMz_21actor_attribute_macro22is_public_async_method
FNDA:0,_RNvCs12mF0EAWhMz_21actor_attribute_macro25snake_case_to_pascal_case
FNDA:0,_RNvCs12mF0EAWhMz_21actor_attribute_macro28generate_actor_documentation
FNDA:0,_RNvCs12mF0EAWhMz_21actor_attribute_macro5actor
FNDA:37,_RNCNvCs2XALaSQRAYq_21actor_attribute_macro25snake_case_to_pascal_case0B3_
FNDA:26,_RNCNvCs2XALaSQRAYq_21actor_attribute_macro28generate_actor_documentation0B3_
FNDA:26,_RNCNvCs2XALaSQRAYq_21actor_attribute_macro5actor0B3_
FNDA:28,_RNvCs2XALaSQRAYq_21actor_attribute_macro18extract_method_doc
FNDA:84,_RNvCs2XALaSQRAYq_21actor_attribute_macro21extract_method_params
FNDA:52,_RNvCs2XALaSQRAYq_21actor_attribute_macro22generate_example_value
FNDA:30,_RNvCs2XALaSQRAYq_21actor_attribute_macro22is_public_async_method
FNDA:28,_RNvCs2XALaSQRAYq_21actor_attribute_macro25snake_case_to_pascal_case
FNDA:5,_RNvCs2XALaSQRAYq_21actor_attribute_macro28generate_actor_documentation
FNDA:5,_RNvCs2XALaSQRAYq_21actor_attribute_macro5actor
FNF:10
FNH:10
DA:16,5
DA:17,5
DA:20,5
DA:23,5
DA:24,5
DA:25,5
DA:27,35
DA:28,30
DA:29,30
DA:31,28
DA:32,28
DA:35,28
DA:38,28
DA:39,28
DA:40,28
DA:44,28
DA:45,17
DA:46,17
DA:47,26
DA:48,26
DA:49,26
DA:50,17
DA:52,17
DA:58,11
DA:59,11
DA:60,11
DA:61,11
DA:62,11
DA:63,11
DA:64,11
DA:67,28
DA:68,28
DA:69,11
DA:71,17
DA:74,28
DA:91,28
DA:92,2
DA:96,5
DA:99,5
DA:127,5
DA:133,5
DA:134,5
DA:137,30
DA:139,30
DA:142,30
DA:144,30
DA:145,30
DA:148,84
DA:149,84
DA:151,246
DA:152,162
DA:153,84
DA:154,78
DA:155,78
DA:156,78
DA:157,78
DA:162,84
DA:163,84
DA:166,28
DA:167,28
DA:168,37
DA:169,37
DA:170,37
DA:171,0
DA:172,37
DA:174,37
DA:175,28
DA:176,28
DA:179,5
DA:180,5
DA:183,5
DA:184,5
DA:185,5
DA:186,5
DA:187,5
DA:188,5
DA:192,5
DA:193,5
DA:195,33
DA:196,28
DA:197,28
DA:198,28
DA:200,28
DA:201,11
DA:203,17
DA:204,17
DA:205,26
DA:206,17
DA:207,17
DA:210,28
DA:211,0
DA:212,28
DA:215,28
DA:216,28
DA:217,28
DA:218,28
DA:222,33
DA:223,28
DA:224,28
DA:225,28
DA:226,28
DA:228,28
DA:229,28
DA:232,28
DA:233,22
DA:234,22
DA:237,28
DA:238,11
DA:239,11
DA:240,17
DA:241,43
DA:242,26
DA:243,26
DA:244,17
DA:248,28
DA:249,0
DA:250,28
DA:252,28
DA:255,28
DA:256,28
DA:257,28
DA:258,11
DA:259,11
DA:260,17
DA:261,26
DA:262,26
DA:263,26
DA:264,26
DA:266,17
DA:268,28
DA:271,28
DA:272,28
DA:273,28
DA:274,11
DA:275,11
DA:276,11
DA:277,11
DA:278,11
DA:279,17
DA:280,17
DA:281,17
DA:282,17
DA:283,17
DA:284,8
DA:285,8
DA:286,8
DA:287,8
DA:288,9
DA:289,18
DA:290,18
DA:291,18
DA:292,18
DA:294,9
DA:296,17
DA:298,28
DA:301,5
DA:302,5
DA:305,28
DA:306,28
DA:308,98
DA:309,70
DA:310,70
DA:312,70
DA:314,70
DA:316,70
DA:318,70
DA:319,54
DA:321,16
DA:323,70
DA:324,0
DA:327,28
DA:328,6
DA:330,22
DA:332,28
DA:335,52
DA:336,52
DA:338,52
DA:339,52
DA:340,32
DA:341,32
DA:342,12
DA:343,12
DA:344,0
DA:345,0
DA:346,0
DA:347,0
DA:350,0
DA:351,0
DA:352,0
DA:353,0
DA:354,0
DA:355,0
DA:356,0
DA:357,0
DA:359,0
DA:363,52
BRF:0
BRH:0
LF:199
LH:182
end_of_record
SF:/Users/dan/dev/simple_json_server/simple_json_server/src/lib.rs
FN:94,_RNvYNtCsi7laPgELpvk_16integration_test10TestServerNtCsd1x0sA5zCia_18simple_json_server5Actor14create_optionsB4_
FN:133,_RNvYNtCsi7laPgELpvk_16integration_test10TestServerNtCsd1x0sA5zCia_18simple_json_server5Actor6createB4_
FN:147,_RNvYNtCsi7laPgELpvk_16integration_test10TestServerNtCsd1x0sA5zCia_18simple_json_server5Actor9create_wsB4_
FN:195,_RNvXCsd1x0sA5zCia_18simple_json_serverINtNtCsiTraAjBDcu4_5alloc4sync3ArcNtCsi7laPgELpvk_16integration_test10TestServerENtB2_5Actor8dispatchB1a_
FN:230,_RINvCsd1x0sA5zCia_18simple_json_server17start_http_serverNtCsi7laPgELpvk_16integration_test10TestServerEBV_
FN:256,_RINvCsd1x0sA5zCia_18simple_json_server19handle_http_requestNtCsi7laPgELpvk_16integration_test10TestServerEBX_
FN:309,_RINvCsd1x0sA5zCia_18simple_json_server22start_websocket_serverNtCsi7laPgELpvk_16integration_test10TestServerEB10_
FN:550,_RINvCsd1x0sA5zCia_18simple_json_server23handle_https_connectionNtCsi7laPgELpvk_16integration_test10TestServerEB11_
FN:392,_RINvCsd1x0sA5zCia_18simple_json_server26start_http_server_with_tlsNtCsi7laPgELpvk_16integration_test10TestServerEB14_
FN:331,_RINvCsd1x0sA5zCia_18simple_json_server27handle_websocket_connectionNtCsi7laPgELpvk_16integration_test10TestServerEB15_
FN:487,_RINvCsd1x0sA5zCia_18simple_json_server31handle_websocket_connection_tlsNtCsi7laPgELpvk_16integration_test10TestServerEB19_
FN:439,_RINvCsd1x0sA5zCia_18simple_json_server31start_websocket_server_with_tlsNtCsi7laPgELpvk_16integration_test10TestServerEB19_
FN:233,_RNCINvCsd1x0sA5zCia_18simple_json_server17start_http_serverNtCsi7laPgELpvk_16integration_test10TestServerE0BX_
FN:262,_RNCINvCsd1x0sA5zCia_18simple_json_server19handle_http_requestNtCsi7laPgELpvk_16integration_test10TestServerE0BZ_
FN:312,_RNCINvCsd1x0sA5zCia_18simple_json_server22start_websocket_serverNtCsi7laPgELpvk_16integration_test10TestServerE0B12_
FN:556,_RNCINvCsd1x0sA5zCia_18simple_json_server23handle_https_connectionNtCsi7laPgELpvk_16integration_test10TestServerE0B13_
FN:395,_RNCINvCsd1x0sA5zCia_18simple_json_server26start_http_server_with_tlsNtCsi7laPgELpvk_16integration_test10TestServerE0B16_
FN:337,_RNCINvCsd1x0sA5zCia_18simple_json_server27handle_websocket_connectionNtCsi7laPgELpvk_16integration_test10TestServerE0B17_
FN:493,_RNCINvCsd1x0sA5zCia_18simple_json_server31handle_websocket_connection_tlsNtCsi7laPgELpvk_16integration_test10TestServerE0B1b_
FN:442,_RNCINvCsd1x0sA5zCia_18simple_json_server31start_websocket_server_with_tlsNtCsi7laPgELpvk_16integration_test10TestServerE0B1b_
FN:236,_RNCNCINvCsd1x0sA5zCia_18simple_json_server17start_http_serverNtCsi7laPgELpvk_16integration_test10TestServerE00BZ_
FN:314,_RNCNCINvCsd1x0sA5zCia_18simple_json_server22start_websocket_serverNtCsi7laPgELpvk_16integration_test10TestServerE00B14_
FN:322,_RNCNCINvCsd1x0sA5zCia_18simple_json_server22start_websocket_serverNtCsi7laPgELpvk_16integration_test10TestServerE0s_0B14_
FN:411,_RNCNCINvCsd1x0sA5zCia_18simple_json_server26start_http_server_with_tlsNtCsi7laPgELpvk_16integration_test10TestServerE00B18_
FN:350,_RNCNCINvCsd1x0sA5zCia_18simple_json_server27handle_websocket_connectionNtCsi7laPgELpvk_16integration_test10TestServerE00B19_
FN:359,_RNCNCINvCsd1x0sA5zCia_18simple_json_server27handle_websocket_connectionNtCsi7laPgELpvk_16integration_test10TestServerE0s_0B19_
FN:504,_RNCNCINvCsd1x0sA5zCia_18simple_json_server31handle_websocket_connection_tlsNtCsi7laPgELpvk_16integration_test10TestServerE00B1d_
FN:458,_RNCNCINvCsd1x0sA5zCia_18simple_json_server31start_websocket_server_with_tlsNtCsi7laPgELpvk_16integration_test10TestServerE00B1d_
FN:238,_RNCNCNCINvCsd1x0sA5zCia_18simple_json_server17start_http_serverNtCsi7laPgELpvk_16integration_test10TestServerE000B11_
FN:239,_RNCNCNCNCINvCsd1x0sA5zCia_18simple_json_server17start_http_serverNtCsi7laPgELpvk_16integration_test10TestServerE0000B13_
FN:241,_RNCNCNCNCNCINvCsd1x0sA5zCia_18simple_json_server17start_http_serverNtCsi7laPgELpvk_16integration_test10TestServerE00000B15_
FN:114,_RNCNCNvYNtCsi7laPgELpvk_16integration_test10TestServerNtCsd1x0sA5zCia_18simple_json_server5Actor14create_optionss_00B8_
FN:103,_RNCNvYNtCsi7laPgELpvk_16integration_test10TestServerNtCsd1x0sA5zCia_18simple_json_server5Actor14create_options0B6_
FN:112,_RNCNvYNtCsi7laPgELpvk_16integration_test10TestServerNtCsd1x0sA5zCia_18simple_json_server5Actor14create_optionss_0B6_
FN:230,_RINvCsd1x0sA5zCia_18simple_json_server17start_http_serverpEB2_
FN:256,_RINvCsd1x0sA5zCia_18simple_json_server19handle_http_requestpEB2_
FN:309,_RINvCsd1x0sA5zCia_18simple_json_server22start_websocket_serverpEB2_
FN:550,_RINvCsd1x0sA5zCia_18simple_json_server23handle_https_connectionpEB2_
FN:392,_RINvCsd1x0sA5zCia_18simple_json_server26start_http_server_with_tlspEB2_
FN:331,_RINvCsd1x0sA5zCia_18simple_json_server27handle_websocket_connectionpEB2_
FN:487,_RINvCsd1x0sA5zCia_18simple_json_server31handle_websocket_connection_tlspEB2_
FN:439,_RINvCsd1x0sA5zCia_18simple_json_server31start_websocket_server_with_tlspEB2_
FN:233,_RNCINvCsd1x0sA5zCia_18simple_json_server17start_http_serverpE0B4_
FN:262,_RNCINvCsd1x0sA5zCia_18simple_json_server19handle_http_requestpE0B4_
FN:312,_RNCINvCsd1x0sA5zCia_18simple_json_server22start_websocket_serverpE0B4_
FN:556,_RNCINvCsd1x0sA5zCia_18simple_json_server23handle_https_connectionpE0B4_
FN:395,_RNCINvCsd1x0sA5zCia_18simple_json_server26start_http_server_with_tlspE0B4_
FN:337,_RNCINvCsd1x0sA5zCia_18simple_json_server27handle_websocket_connectionpE0B4_
FN:493,_RNCINvCsd1x0sA5zCia_18simple_json_server31handle_websocket_connection_tlspE0B4_
FN:442,_RNCINvCsd1x0sA5zCia_18simple_json_server31start_websocket_server_with_tlspE0B4_
FN:236,_RNCNCINvCsd1x0sA5zCia_18simple_json_server17start_http_serverpE00B6_
FN:314,_RNCNCINvCsd1x0sA5zCia_18simple_json_server22start_websocket_serverpE00B6_
FN:322,_RNCNCINvCsd1x0sA5zCia_18simple_json_server22start_websocket_serverpE0s_0B6_
FN:411,_RNCNCINvCsd1x0sA5zCia_18simple_json_server26start_http_server_with_tlspE00B6_
FN:350,_RNCNCINvCsd1x0sA5zCia_18simple_json_server27handle_websocket_connectionpE00B6_
FN:359,_RNCNCINvCsd1x0sA5zCia_18simple_json_server27handle_websocket_connectionpE0s_0B6_
FN:504,_RNCNCINvCsd1x0sA5zCia_18simple_json_server31handle_websocket_connection_tlspE00B6_
FN:458,_RNCNCINvCsd1x0sA5zCia_18simple_json_server31start_websocket_server_with_tlspE00B6_
FN:238,_RNCNCNCINvCsd1x0sA5zCia_18simple_json_server17start_http_serverpE000B8_
FN:239,_RNCNCNCNCINvCsd1x0sA5zCia_18simple_json_server17start_http_serverpE0000Ba_
FN:241,_RNCNCNCNCNCINvCsd1x0sA5zCia_18simple_json_server17start_http_serverpE00000Bc_
FN:217,_RNCNCNvXINICsd1x0sA5zCia_18simple_json_server0pEINtNtCsiTraAjBDcu4_5alloc4sync3ArcpENtB9_5Actor14create_optionss_00B9_
FN:114,_RNCNCNvYpNtCsd1x0sA5zCia_18simple_json_server5Actor14create_optionss_00B9_
FN:654,_RNCNvMs2_Csd1x0sA5zCia_18simple_json_serverNtB7_12ExampleActor11get_counter0B7_
FN:670,_RNCNvMs2_Csd1x0sA5zCia_18simple_json_serverNtB7_12ExampleActor14calculate_area0B7_
FN:646,_RNCNvMs2_Csd1x0sA5zCia_18simple_json_serverNtB7_12ExampleActor3add0B7_
FN:686,_RNCNvMs2_Csd1x0sA5zCia_18simple_json_serverNtB7_12ExampleActor4info0B7_
FN:694,_RNCNvMs2_Csd1x0sA5zCia_18simple_json_serverNtB7_12ExampleActor4ping0B7_
FN:662,_RNCNvMs2_Csd1x0sA5zCia_18simple_json_serverNtB7_12ExampleActor5greet0B7_
FN:702,_RNCNvMs2_Csd1x0sA5zCia_18simple_json_serverNtB7_12ExampleActor6divide0B7_
FN:678,_RNCNvMs2_Csd1x0sA5zCia_18simple_json_serverNtB7_12ExampleActor7is_even0B7_
FN:206,_RNCNvXINICsd1x0sA5zCia_18simple_json_server0pEINtNtCsiTraAjBDcu4_5alloc4sync3ArcpENtB7_5Actor14create_options0B7_
FN:215,_RNCNvXINICsd1x0sA5zCia_18simple_json_server0pEINtNtCsiTraAjBDcu4_5alloc4sync3ArcpENtB7_5Actor14create_optionss_0B7_
FN:103,_RNCNvYpNtCsd1x0sA5zCia_18simple_json_server5Actor14create_options0B7_
FN:112,_RNCNvYpNtCsd1x0sA5zCia_18simple_json_server5Actor14create_optionss_0B7_
FN:199,_RNvXINICsd1x0sA5zCia_18simple_json_server0pEINtNtCsiTraAjBDcu4_5alloc4sync3ArcpENtB5_5Actor14create_optionsB5_
FN:195,_RNvXINICsd1x0sA5zCia_18simple_json_server0pEINtNtCsiTraAjBDcu4_5alloc4sync3ArcpENtB5_5Actor8dispatchB5_
FN:177,_RNvYpNtCsd1x0sA5zCia_18simple_json_server5Actor10create_wssB5_
FN:162,_RNvYpNtCsd1x0sA5zCia_18simple_json_server5Actor12create_httpsB5_
FN:94,_RNvYpNtCsd1x0sA5zCia_18simple_json_server5Actor14create_optionsB5_
FN:133,_RNvYpNtCsd1x0sA5zCia_18simple_json_server5Actor6createB5_
FN:147,_RNvYpNtCsd1x0sA5zCia_18simple_json_server5Actor9create_wsB5_
FN:230,_RINvCs3bT7G2JF9mh_18simple_json_server17start_http_serverpEB2_
FN:256,_RINvCs3bT7G2JF9mh_18simple_json_server19handle_http_requestpEB2_
FN:309,_RINvCs3bT7G2JF9mh_18simple_json_server22start_websocket_serverpEB2_
FN:550,_RINvCs3bT7G2JF9mh_18simple_json_server23handle_https_connectionpEB2_
FN:392,_RINvCs3bT7G2JF9mh_18simple_json_server26start_http_server_with_tlspEB2_
FN:331,_RINvCs3bT7G2JF9mh_18simple_json_server27handle_websocket_connectionpEB2_
FN:487,_RINvCs3bT7G2JF9mh_18simple_json_server31handle_websocket_connection_tlspEB2_
FN:439,_RINvCs3bT7G2JF9mh_18simple_json_server31start_websocket_server_with_tlspEB2_
FN:233,_RNCINvCs3bT7G2JF9mh_18simple_json_server17start_http_serverpE0B4_
FN:262,_RNCINvCs3bT7G2JF9mh_18simple_json_server19handle_http_requestpE0B4_
FN:312,_RNCINvCs3bT7G2JF9mh_18simple_json_server22start_websocket_serverpE0B4_
FN:556,_RNCINvCs3bT7G2JF9mh_18simple_json_server23handle_https_connectionpE0B4_
FN:395,_RNCINvCs3bT7G2JF9mh_18simple_json_server26start_http_server_with_tlspE0B4_
FN:337,_RNCINvCs3bT7G2JF9mh_18simple_json_server27handle_websocket_connectionpE0B4_
FN:493,_RNCINvCs3bT7G2JF9mh_18simple_json_server31handle_websocket_connection_tlspE0B4_
FN:442,_RNCINvCs3bT7G2JF9mh_18simple_json_server31start_websocket_server_with_tlspE0B4_
FN:236,_RNCNCINvCs3bT7G2JF9mh_18simple_json_server17start_http_serverpE00B6_
FN:314,_RNCNCINvCs3bT7G2JF9mh_18simple_json_server22start_websocket_serverpE00B6_
FN:322,_RNCNCINvCs3bT7G2JF9mh_18simple_json_server22start_websocket_serverpE0s_0B6_
FN:411,_RNCNCINvCs3bT7G2JF9mh_18simple_json_server26start_http_server_with_tlspE00B6_
FN:350,_RNCNCINvCs3bT7G2JF9mh_18simple_json_server27handle_websocket_connectionpE00B6_
FN:359,_RNCNCINvCs3bT7G2JF9mh_18simple_json_server27handle_websocket_connectionpE0s_0B6_
FN:504,_RNCNCINvCs3bT7G2JF9mh_18simple_json_server31handle_websocket_connection_tlspE00B6_
FN:458,_RNCNCINvCs3bT7G2JF9mh_18simple_json_server31start_websocket_server_with_tlspE00B6_
FN:238,_RNCNCNCINvCs3bT7G2JF9mh_18simple_json_server17start_http_serverpE000B8_
FN:239,_RNCNCNCNCINvCs3bT7G2JF9mh_18simple_json_server17start_http_serverpE0000Ba_
FN:241,_RNCNCNCNCNCINvCs3bT7G2JF9mh_18simple_json_server17start_http_serverpE00000Bc_
FN:217,_RNCNCNvXINICs3bT7G2JF9mh_18simple_json_server0pEINtNtCsiTraAjBDcu4_5alloc4sync3ArcpENtB9_5Actor14create_optionss_00B9_
FN:114,_RNCNCNvYpNtCs3bT7G2JF9mh_18simple_json_server5Actor14create_optionss_00B9_
FN:654,_RNCNvMs2_Cs3bT7G2JF9mh_18simple_json_serverNtB7_12ExampleActor11get_counter0B7_
FN:670,_RNCNvMs2_Cs3bT7G2JF9mh_18simple_json_serverNtB7_12ExampleActor14calculate_area0B7_
FN:646,_RNCNvMs2_Cs3bT7G2JF9mh_18simple_json_serverNtB7_12ExampleActor3add0B7_
FN:686,_RNCNvMs2_Cs3bT7G2JF9mh_18simple_json_serverNtB7_12ExampleActor4info0B7_
FN:694,_RNCNvMs2_Cs3bT7G2JF9mh_18simple_json_serverNtB7_12ExampleActor4ping0B7_
FN:662,_RNCNvMs2_Cs3bT7G2JF9mh_18simple_json_serverNtB7_12ExampleActor5greet0B7_
FN:702,_RNCNvMs2_Cs3bT7G2JF9mh_18simple_json_serverNtB7_12ExampleActor6divide0B7_
FN:678,_RNCNvMs2_Cs3bT7G2JF9mh_18simple_json_serverNtB7_12ExampleActor7is_even0B7_
FN:206,_RNCNvXINICs3bT7G2JF9mh_18simple_json_server0pEINtNtCsiTraAjBDcu4_5alloc4sync3ArcpENtB7_5Actor14create_options0B7_
FN:215,_RNCNvXINICs3bT7G2JF9mh_18simple_json_server0pEINtNtCsiTraAjBDcu4_5alloc4sync3ArcpENtB7_5Actor14create_optionss_0B7_
FN:103,_RNCNvYpNtCs3bT7G2JF9mh_18simple_json_server5Actor14create_options0B7_
FN:112,_RNCNvYpNtCs3bT7G2JF9mh_18simple_json_server5Actor14create_optionss_0B7_
FN:654,_RNvMs2_Cs3bT7G2JF9mh_18simple_json_serverNtB5_12ExampleActor11get_counter
FN:670,_RNvMs2_Cs3bT7G2JF9mh_18simple_json_serverNtB5_12ExampleActor14calculate_area
FN:646,_RNvMs2_Cs3bT7G2JF9mh_18simple_json_serverNtB5_12ExampleActor3add
FN:686,_RNvMs2_Cs3bT7G2JF9mh_18simple_json_serverNtB5_12ExampleActor4info
FN:694,_RNvMs2_Cs3bT7G2JF9mh_18simple_json_serverNtB5_12ExampleActor4ping
FN:662,_RNvMs2_Cs3bT7G2JF9mh_18simple_json_serverNtB5_12ExampleActor5greet
FN:702,_RNvMs2_Cs3bT7G2JF9mh_18simple_json_serverNtB5_12ExampleActor6divide
FN:678,_RNvMs2_Cs3bT7G2JF9mh_18simple_json_serverNtB5_12ExampleActor7is_even
FN:635,_RNvMs_Cs3bT7G2JF9mh_18simple_json_serverNtB4_12ExampleActor3new
FN:199,_RNvXINICs3bT7G2JF9mh_18simple_json_server0pEINtNtCsiTraAjBDcu4_5alloc4sync3ArcpENtB5_5Actor14create_optionsB5_
FN:195,_RNvXINICs3bT7G2JF9mh_18simple_json_server0pEINtNtCsiTraAjBDcu4_5alloc4sync3ArcpENtB5_5Actor8dispatchB5_
FN:177,_RNvYpNtCs3bT7G2JF9mh_18simple_json_server5Actor10create_wssB5_
FN:162,_RNvYpNtCs3bT7G2JF9mh_18simple_json_server5Actor12create_httpsB5_
FN:94,_RNvYpNtCs3bT7G2JF9mh_18simple_json_server5Actor14create_optionsB5_
FN:133,_RNvYpNtCs3bT7G2JF9mh_18simple_json_server5Actor6createB5_
FN:147,_RNvYpNtCs3bT7G2JF9mh_18simple_json_server5Actor9create_wsB5_
FNDA:3,_RNvYNtCsi7laPgELpvk_16integration_test10TestServerNtCsd1x0sA5zCia_18simple_json_server5Actor14create_optionsB4_
FNDA:1,_RNvYNtCsi7laPgELpvk_16integration_test10TestServerNtCsd1x0sA5zCia_18simple_json_server5Actor6createB4_
FNDA:1,_RNvYNtCsi7laPgELpvk_16integration_test10TestServerNtCsd1x0sA5zCia_18simple_json_server5Actor9create_wsB4_
FNDA:3,_RNvXCsd1x0sA5zCia_18simple_json_serverINtNtCsiTraAjBDcu4_5alloc4sync3ArcNtCsi7laPgELpvk_16integration_test10TestServerENtB2_5Actor8dispatchB1a_
FNDA:1,_RINvCsd1x0sA5zCia_18simple_json_server17start_http_serverNtCsi7laPgELpvk_16integration_test10TestServerEBV_
FNDA:9,_RINvCsd1x0sA5zCia_18simple_json_server19handle_http_requestNtCsi7laPgELpvk_16integration_test10TestServerEBX_
FNDA:1,_RINvCsd1x0sA5zCia_18simple_json_server22start_websocket_serverNtCsi7laPgELpvk_16integration_test10TestServerEB10_
FNDA:3,_RINvCsd1x0sA5zCia_18simple_json_server23handle_https_connectionNtCsi7laPgELpvk_16integration_test10TestServerEB11_
FNDA:2,_RINvCsd1x0sA5zCia_18simple_json_server26start_http_server_with_tlsNtCsi7laPgELpvk_16integration_test10TestServerEB14_
FNDA:1,_RINvCsd1x0sA5zCia_18simple_json_server27handle_websocket_connectionNtCsi7laPgELpvk_16integration_test10TestServerEB15_
FNDA:0,_RINvCsd1x0sA5zCia_18simple_json_server31handle_websocket_connection_tlsNtCsi7laPgELpvk_16integration_test10TestServerEB19_
FNDA:1,_RINvCsd1x0sA5zCia_18simple_json_server31start_websocket_server_with_tlsNtCsi7laPgELpvk_16integration_test10TestServerEB19_
FNDA:1,_RNCINvCsd1x0sA5zCia_18simple_json_server17start_http_serverNtCsi7laPgELpvk_16integration_test10TestServerE0BX_
FNDA:9,_RNCINvCsd1x0sA5zCia_18simple_json_server19handle_http_requestNtCsi7laPgELpvk_16integration_test10TestServerE0BZ_
FNDA:1,_RNCINvCsd1x0sA5zCia_18simple_json_server22start_websocket_serverNtCsi7laPgELpvk_16integration_test10TestServerE0B12_
FNDA:3,_RNCINvCsd1x0sA5zCia_18simple_json_server23handle_https_connectionNtCsi7laPgELpvk_16integration_test10TestServerE0B13_
FNDA:2,_RNCINvCsd1x0sA5zCia_18simple_json_server26start_http_server_with_tlsNtCsi7laPgELpvk_16integration_test10TestServerE0B16_
FNDA:1,_RNCINvCsd1x0sA5zCia_18simple_json_server27handle_websocket_connectionNtCsi7laPgELpvk_16integration_test10TestServerE0B17_
FNDA:0,_RNCINvCsd1x0sA5zCia_18simple_json_server31handle_websocket_connection_tlsNtCsi7laPgELpvk_16integration_test10TestServerE0B1b_
FNDA:1,_RNCINvCsd1x0sA5zCia_18simple_json_server31start_websocket_server_with_tlsNtCsi7laPgELpvk_16integration_test10TestServerE0B1b_
FNDA:1,_RNCNCINvCsd1x0sA5zCia_18simple_json_server17start_http_serverNtCsi7laPgELpvk_16integration_test10TestServerE00BZ_
FNDA:0,_RNCNCINvCsd1x0sA5zCia_18simple_json_server22start_websocket_serverNtCsi7laPgELpvk_16integration_test10TestServerE00B14_
FNDA:1,_RNCNCINvCsd1x0sA5zCia_18simple_json_server22start_websocket_serverNtCsi7laPgELpvk_16integration_test10TestServerE0s_0B14_
FNDA:3,_RNCNCINvCsd1x0sA5zCia_18simple_json_server26start_http_server_with_tlsNtCsi7laPgELpvk_16integration_test10TestServerE00B18_
FNDA:3,_RNCNCINvCsd1x0sA5zCia_18simple_json_server27handle_websocket_connectionNtCsi7laPgELpvk_16integration_test10TestServerE00B19_
FNDA:0,_RNCNCINvCsd1x0sA5zCia_18simple_json_server27handle_websocket_connectionNtCsi7laPgELpvk_16integration_test10TestServerE0s_0B19_
FNDA:0,_RNCNCINvCsd1x0sA5zCia_18simple_json_server31handle_websocket_connection_tlsNtCsi7laPgELpvk_16integration_test10TestServerE00B1d_
FNDA:0,_RNCNCINvCsd1x0sA5zCia_18simple_json_server31start_websocket_server_with_tlsNtCsi7laPgELpvk_16integration_test10TestServerE00B1d_
FNDA:1,_RNCNCNCINvCsd1x0sA5zCia_18simple_json_server17start_http_serverNtCsi7laPgELpvk_16integration_test10TestServerE000B11_
FNDA:9,_RNCNCNCNCINvCsd1x0sA5zCia_18simple_json_server17start_http_serverNtCsi7laPgELpvk_16integration_test10TestServerE0000B13_
FNDA:9,_RNCNCNCNCNCINvCsd1x0sA5zCia_18simple_json_server17start_http_serverNtCsi7laPgELpvk_16integration_test10TestServerE00000B15_
FNDA:0,_RNCNCNvYNtCsi7laPgELpvk_16integration_test10TestServerNtCsd1x0sA5zCia_18simple_json_server5Actor14create_optionss_00B8_
FNDA:3,_RNCNvYNtCsi7laPgELpvk_16integration_test10TestServerNtCsd1x0sA5zCia_18simple_json_server5Actor14create_options0B6_
FNDA:0,_RNCNvYNtCsi7laPgELpvk_16integration_test10TestServerNtCsd1x0sA5zCia_18simple_json_server5Actor14create_optionss_0B6_
FNDA:0,_RINvCsd1x0sA5zCia_18simple_json_server17start_http_serverpEB2_
FNDA:0,_RINvCsd1x0sA5zCia_18simple_json_server19handle_http_requestpEB2_
FNDA:0,_RINvCsd1x0sA5zCia_18simple_json_server22start_websocket_serverpEB2_
FNDA:0,_RINvCsd1x0sA5zCia_18simple_json_server23handle_https_connectionpEB2_
FNDA:0,_RINvCsd1x0sA5zCia_18simple_json_server26start_http_server_with_tlspEB2_
FNDA:0,_RINvCsd1x0sA5zCia_18simple_json_server27handle_websocket_connectionpEB2_
FNDA:0,_RINvCsd1x0sA5zCia_18simple_json_server31handle_websocket_connection_tlspEB2_
FNDA:0,_RINvCsd1x0sA5zCia_18simple_json_server31start_websocket_server_with_tlspEB2_
FNDA:0,_RNCINvCsd1x0sA5zCia_18simple_json_server17start_http_serverpE0B4_
FNDA:0,_RNCINvCsd1x0sA5zCia_18simple_json_server19handle_http_requestpE0B4_
FNDA:0,_RNCINvCsd1x0sA5zCia_18simple_json_server22start_websocket_serverpE0B4_
FNDA:0,_RNCINvCsd1x0sA5zCia_18simple_json_server23handle_https_connectionpE0B4_
FNDA:0,_RNCINvCsd1x0sA5zCia_18simple_json_server26start_http_server_with_tlspE0B4_
FNDA:0,_RNCINvCsd1x0sA5zCia_18simple_json_server27handle_websocket_connectionpE0B4_
FNDA:0,_RNCINvCsd1x0sA5zCia_18simple_json_server31handle_websocket_connection_tlspE0B4_
FNDA:0,_RNCINvCsd1x0sA5zCia_18simple_json_server31start_websocket_server_with_tlspE0B4_
FNDA:0,_RNCNCINvCsd1x0sA5zCia_18simple_json_server17start_http_serverpE00B6_
FNDA:0,_RNCNCINvCsd1x0sA5zCia_18simple_json_server22start_websocket_serverpE00B6_
FNDA:0,_RNCNCINvCsd1x0sA5zCia_18simple_json_server22start_websocket_serverpE0s_0B6_
FNDA:0,_RNCNCINvCsd1x0sA5zCia_18simple_json_server26start_http_server_with_tlspE00B6_
FNDA:0,_RNCNCINvCsd1x0sA5zCia_18simple_json_server27handle_websocket_connectionpE00B6_
FNDA:0,_RNCNCINvCsd1x0sA5zCia_18simple_json_server27handle_websocket_connectionpE0s_0B6_
FNDA:0,_RNCNCINvCsd1x0sA5zCia_18simple_json_server31handle_websocket_connection_tlspE00B6_
FNDA:0,_RNCNCINvCsd1x0sA5zCia_18simple_json_server31start_websocket_server_with_tlspE00B6_
FNDA:0,_RNCNCNCINvCsd1x0sA5zCia_18simple_json_server17start_http_serverpE000B8_
FNDA:0,_RNCNCNCNCINvCsd1x0sA5zCia_18simple_json_server17start_http_serverpE0000Ba_
FNDA:0,_RNCNCNCNCNCINvCsd1x0sA5zCia_18simple_json_server17start_http_serverpE00000Bc_
FNDA:0,_RNCNCNvXINICsd1x0sA5zCia_18simple_json_server0pEINtNtCsiTraAjBDcu4_5alloc4sync3ArcpENtB9_5Actor14create_optionss_00B9_
FNDA:0,_RNCNCNvYpNtCsd1x0sA5zCia_18simple_json_server5Actor14create_optionss_00B9_
FNDA:0,_RNCNvMs2_Csd1x0sA5zCia_18simple_json_serverNtB7_12ExampleActor11get_counter0B7_
FNDA:0,_RNCNvMs2_Csd1x0sA5zCia_18simple_json_serverNtB7_12ExampleActor14calculate_area0B7_
FNDA:0,_RNCNvMs2_Csd1x0sA5zCia_18simple_json_serverNtB7_12ExampleActor3add0B7_
FNDA:0,_RNCNvMs2_Csd1x0sA5zCia_18simple_json_serverNtB7_12ExampleActor4info0B7_
FNDA:0,_RNCNvMs2_Csd1x0sA5zCia_18simple_json_serverNtB7_12ExampleActor4ping0B7_
FNDA:0,_RNCNvMs2_Csd1x0sA5zCia_18simple_json_serverNtB7_12ExampleActor5greet0B7_
FNDA:0,_RNCNvMs2_Csd1x0sA5zCia_18simple_json_serverNtB7_12ExampleActor6divide0B7_
FNDA:0,_RNCNvMs2_Csd1x0sA5zCia_18simple_json_serverNtB7_12ExampleActor7is_even0B7_
FNDA:0,_RNCNvXINICsd1x0sA5zCia_18simple_json_server0pEINtNtCsiTraAjBDcu4_5alloc4sync3ArcpENtB7_5Actor14create_options0B7_
FNDA:0,_RNCNvXINICsd1x0sA5zCia_18simple_json_server0pEINtNtCsiTraAjBDcu4_5alloc4sync3ArcpENtB7_5Actor14create_optionss_0B7_
FNDA:0,_RNCNvYpNtCsd1x0sA5zCia_18simple_json_server5Actor14create_options0B7_
FNDA:0,_RNCNvYpNtCsd1x0sA5zCia_18simple_json_server5Actor14create_optionss_0B7_
FNDA:0,_RNvXINICsd1x0sA5zCia_18simple_json_server0pEINtNtCsiTraAjBDcu4_5alloc4sync3ArcpENtB5_5Actor14create_optionsB5_
FNDA:0,_RNvXINICsd1x0sA5zCia_18simple_json_server0pEINtNtCsiTraAjBDcu4_5alloc4sync3ArcpENtB5_5Actor8dispatchB5_
FNDA:0,_RNvYpNtCsd1x0sA5zCia_18simple_json_server5Actor10create_wssB5_
FNDA:0,_RNvYpNtCsd1x0sA5zCia_18simple_json_server5Actor12create_httpsB5_
FNDA:0,_RNvYpNtCsd1x0sA5zCia_18simple_json_server5Actor14create_optionsB5_
FNDA:0,_RNvYpNtCsd1x0sA5zCia_18simple_json_server5Actor6createB5_
FNDA:0,_RNvYpNtCsd1x0sA5zCia_18simple_json_server5Actor9create_wsB5_
FNDA:0,_RINvCs3bT7G2JF9mh_18simple_json_server17start_http_serverpEB2_
FNDA:0,_RINvCs3bT7G2JF9mh_18simple_json_server19handle_http_requestpEB2_
FNDA:0,_RINvCs3bT7G2JF9mh_18simple_json_server22start_websocket_serverpEB2_
FNDA:0,_RINvCs3bT7G2JF9mh_18simple_json_server23handle_https_connectionpEB2_
FNDA:0,_RINvCs3bT7G2JF9mh_18simple_json_server26start_http_server_with_tlspEB2_
FNDA:0,_RINvCs3bT7G2JF9mh_18simple_json_server27handle_websocket_connectionpEB2_
FNDA:0,_RINvCs3bT7G2JF9mh_18simple_json_server31handle_websocket_connection_tlspEB2_
FNDA:0,_RINvCs3bT7G2JF9mh_18simple_json_server31start_websocket_server_with_tlspEB2_
FNDA:0,_RNCINvCs3bT7G2JF9mh_18simple_json_server17start_http_serverpE0B4_
FNDA:0,_RNCINvCs3bT7G2JF9mh_18simple_json_server19handle_http_requestpE0B4_
FNDA:0,_RNCINvCs3bT7G2JF9mh_18simple_json_server22start_websocket_serverpE0B4_
FNDA:0,_RNCINvCs3bT7G2JF9mh_18simple_json_server23handle_https_connectionpE0B4_
FNDA:0,_RNCINvCs3bT7G2JF9mh_18simple_json_server26start_http_server_with_tlspE0B4_
FNDA:0,_RNCINvCs3bT7G2JF9mh_18simple_json_server27handle_websocket_connectionpE0B4_
FNDA:0,_RNCINvCs3bT7G2JF9mh_18simple_json_server31handle_websocket_connection_tlspE0B4_
FNDA:0,_RNCINvCs3bT7G2JF9mh_18simple_json_server31start_websocket_server_with_tlspE0B4_
FNDA:0,_RNCNCINvCs3bT7G2JF9mh_18simple_json_server17start_http_serverpE00B6_
FNDA:0,_RNCNCINvCs3bT7G2JF9mh_18simple_json_server22start_websocket_serverpE00B6_
FNDA:0,_RNCNCINvCs3bT7G2JF9mh_18simple_json_server22start_websocket_serverpE0s_0B6_
FNDA:0,_RNCNCINvCs3bT7G2JF9mh_18simple_json_server26start_http_server_with_tlspE00B6_
FNDA:0,_RNCNCINvCs3bT7G2JF9mh_18simple_json_server27handle_websocket_connectionpE00B6_
FNDA:0,_RNCNCINvCs3bT7G2JF9mh_18simple_json_server27handle_websocket_connectionpE0s_0B6_
FNDA:0,_RNCNCINvCs3bT7G2JF9mh_18simple_json_server31handle_websocket_connection_tlspE00B6_
FNDA:0,_RNCNCINvCs3bT7G2JF9mh_18simple_json_server31start_websocket_server_with_tlspE00B6_
FNDA:0,_RNCNCNCINvCs3bT7G2JF9mh_18simple_json_server17start_http_serverpE000B8_
FNDA:0,_RNCNCNCNCINvCs3bT7G2JF9mh_18simple_json_server17start_http_serverpE0000Ba_
FNDA:0,_RNCNCNCNCNCINvCs3bT7G2JF9mh_18simple_json_server17start_http_serverpE00000Bc_
FNDA:0,_RNCNCNvXINICs3bT7G2JF9mh_18simple_json_server0pEINtNtCsiTraAjBDcu4_5alloc4sync3ArcpENtB9_5Actor14create_optionss_00B9_
FNDA:0,_RNCNCNvYpNtCs3bT7G2JF9mh_18simple_json_server5Actor14create_optionss_00B9_
FNDA:0,_RNCNvMs2_Cs3bT7G2JF9mh_18simple_json_serverNtB7_12ExampleActor11get_counter0B7_
FNDA:0,_RNCNvMs2_Cs3bT7G2JF9mh_18simple_json_serverNtB7_12ExampleActor14calculate_area0B7_
FNDA:0,_RNCNvMs2_Cs3bT7G2JF9mh_18simple_json_serverNtB7_12ExampleActor3add0B7_
FNDA:0,_RNCNvMs2_Cs3bT7G2JF9mh_18simple_json_serverNtB7_12ExampleActor4info0B7_
FNDA:0,_RNCNvMs2_Cs3bT7G2JF9mh_18simple_json_serverNtB7_12ExampleActor4ping0B7_
FNDA:0,_RNCNvMs2_Cs3bT7G2JF9mh_18simple_json_serverNtB7_12ExampleActor5greet0B7_
FNDA:0,_RNCNvMs2_Cs3bT7G2JF9mh_18simple_json_serverNtB7_12ExampleActor6divide0B7_
FNDA:0,_RNCNvMs2_Cs3bT7G2JF9mh_18simple_json_serverNtB7_12ExampleActor7is_even0B7_
FNDA:0,_RNCNvXINICs3bT7G2JF9mh_18simple_json_server0pEINtNtCsiTraAjBDcu4_5alloc4sync3ArcpENtB7_5Actor14create_options0B7_
FNDA:0,_RNCNvXINICs3bT7G2JF9mh_18simple_json_server0pEINtNtCsiTraAjBDcu4_5alloc4sync3ArcpENtB7_5Actor14create_optionss_0B7_
FNDA:0,_RNCNvYpNtCs3bT7G2JF9mh_18simple_json_server5Actor14create_options0B7_
FNDA:0,_RNCNvYpNtCs3bT7G2JF9mh_18simple_json_server5Actor14create_optionss_0B7_
FNDA:0,_RNvMs2_Cs3bT7G2JF9mh_18simple_json_serverNtB5_12ExampleActor11get_counter
FNDA:0,_RNvMs2_Cs3bT7G2JF9mh_18simple_json_serverNtB5_12ExampleActor14calculate_area
FNDA:0,_RNvMs2_Cs3bT7G2JF9mh_18simple_json_serverNtB5_12ExampleActor3add
FNDA:0,_RNvMs2_Cs3bT7G2JF9mh_18simple_json_serverNtB5_12ExampleActor4info
FNDA:0,_RNvMs2_Cs3bT7G2JF9mh_18simple_json_serverNtB5_12ExampleActor4ping
FNDA:0,_RNvMs2_Cs3bT7G2JF9mh_18simple_json_serverNtB5_12ExampleActor5greet
FNDA:0,_RNvMs2_Cs3bT7G2JF9mh_18simple_json_serverNtB5_12ExampleActor6divide
FNDA:0,_RNvMs2_Cs3bT7G2JF9mh_18simple_json_serverNtB5_12ExampleActor7is_even
FNDA:0,_RNvMs_Cs3bT7G2JF9mh_18simple_json_serverNtB4_12ExampleActor3new
FNDA:0,_RNvXINICs3bT7G2JF9mh_18simple_json_server0pEINtNtCsiTraAjBDcu4_5alloc4sync3ArcpENtB5_5Actor14create_optionsB5_
FNDA:0,_RNvXINICs3bT7G2JF9mh_18simple_json_server0pEINtNtCsiTraAjBDcu4_5alloc4sync3ArcpENtB5_5Actor8dispatchB5_
FNDA:0,_RNvYpNtCs3bT7G2JF9mh_18simple_json_server5Actor10create_wssB5_
FNDA:0,_RNvYpNtCs3bT7G2JF9mh_18simple_json_server5Actor12create_httpsB5_
FNDA:0,_RNvYpNtCs3bT7G2JF9mh_18simple_json_server5Actor14create_optionsB5_
FNDA:0,_RNvYpNtCs3bT7G2JF9mh_18simple_json_server5Actor6createB5_
FNDA:0,_RNvYpNtCs3bT7G2JF9mh_18simple_json_server5Actor9create_wsB5_
FNF:57
FNH:26
DA:94,3
DA:95,3
DA:96,3
DA:98,3
DA:101,3
DA:103,3
DA:104,3
DA:105,1
DA:107,2
DA:109,0
DA:112,0
DA:113,0
DA:114,0
DA:115,0
DA:116,0
DA:118,0
DA:120,0
DA:121,0
DA:123,3
DA:133,1
DA:134,1
DA:135,1
DA:137,1
DA:138,1
DA:147,1
DA:148,1
DA:149,1
DA:151,1
DA:152,1
DA:162,0
DA:163,0
DA:164,0
DA:166,0
DA:167,0
DA:177,0
DA:178,0
DA:179,0
DA:181,0
DA:182,0
DA:195,3
DA:196,3
DA:197,3
DA:199,0
DA:200,0
DA:201,0
DA:204,0
DA:206,0
DA:207,0
DA:208,0
DA:210,0
DA:212,0
DA:215,0
DA:216,0
DA:217,0
DA:218,0
DA:219,0
DA:221,0
DA:223,0
DA:224,0
DA:226,0
DA:230,1
DA:231,1
DA:232,1
DA:233,1
DA:234,1
DA:236,1
DA:237,1
DA:238,1
DA:239,9
DA:240,9
DA:241,9
DA:242,9
DA:243,1
DA:244,1
DA:246,1
DA:248,1
DA:250,1
DA:251,0
DA:252,0
DA:253,0
DA:256,9
DA:257,9
DA:258,9
DA:259,9
DA:260,9
DA:261,9
DA:262,9
DA:263,9
DA:264,9
DA:266,9
DA:267,9
DA:269,9
DA:272,9
DA:273,9
DA:275,0
DA:276,0
DA:277,0
DA:278,0
DA:282,9
DA:283,9
DA:285,0
DA:286,0
DA:287,0
DA:288,0
DA:293,9
DA:295,9
DA:296,9
DA:297,9
DA:298,9
DA:299,9
DA:301,0
DA:302,0
DA:303,0
DA:304,0
DA:306,9
DA:309,1
DA:310,1
DA:311,1
DA:312,1
DA:313,1
DA:314,1
DA:315,0
DA:318,1
DA:320,2
DA:321,1
DA:322,1
DA:323,1
DA:324,0
DA:325,0
DA:326,0
DA:328,0
DA:331,1
DA:332,1
DA:333,1
DA:334,1
DA:335,1
DA:336,1
DA:337,1
DA:338,1
DA:339,1
DA:341,4
DA:342,3
DA:343,3
DA:345,3
DA:346,3
DA:347,3
DA:348,3
DA:349,3
DA:350,3
DA:351,3
DA:353,3
DA:354,3
DA:355,3
DA:356,3
DA:358,3
DA:359,3
DA:362,3
DA:365,3
DA:366,0
DA:367,0
DA:368,3
DA:371,0
DA:372,0
DA:373,0
DA:374,0
DA:375,0
DA:380,0
DA:382,0
DA:383,0
DA:384,0
DA:388,0
DA:389,0
DA:392,2
DA:393,2
DA:394,2
DA:395,2
DA:396,2
DA:397,1
DA:399,1
DA:400,1
DA:401,1
DA:402,1
DA:403,1
DA:405,1
DA:407,4
DA:408,3
DA:409,3
DA:411,3
DA:412,3
DA:413,3
DA:414,3
DA:415,0
DA:416,0
DA:417,3
DA:419,0
DA:420,0
DA:421,0
DA:423,3
DA:426,0
DA:427,0
DA:428,0
DA:433,1
DA:436,0
DA:439,1
DA:440,1
DA:441,1
DA:442,1
DA:443,1
DA:444,0
DA:445,0
DA:446,0
DA:448,0
DA:449,0
DA:450,0
DA:452,0
DA:454,0
DA:455,0
DA:456,0
DA:458,0
DA:459,0
DA:460,0
DA:461,0
DA:462,0
DA:463,0
DA:464,0
DA:465,0
DA:467,0
DA:468,0
DA:469,0
DA:471,0
DA:474,0
DA:475,0
DA:476,0
DA:481,1
DA:484,0
DA:487,0
DA:488,0
DA:489,0
DA:490,0
DA:491,0
DA:492,0
DA:493,0
DA:494,0
DA:495,0
DA:497,0
DA:498,0
DA:499,0
DA:501,0
DA:502,0
DA:503,0
DA:504,0
DA:505,0
DA:507,0
DA:508,0
DA:510,0
DA:511,0
DA:512,0
DA:513,0
DA:515,0
DA:516,0
DA:517,0
DA:519,0
DA:520,0
DA:521,0
DA:522,0
DA:525,0
DA:526,0
DA:527,0
DA:529,0
DA:531,0
DA:532,0
DA:533,0
DA:534,0
DA:539,0
DA:542,0
DA:546,0
DA:547,0
DA:550,3
DA:551,3
DA:552,3
DA:553,3
DA:554,3
DA:555,3
DA:556,3
DA:563,3
DA:564,3
DA:567,3
DA:568,3
DA:569,3
DA:572,3
DA:573,3
DA:574,3
DA:575,3
DA:576,3
DA:577,3
DA:580,3
DA:581,3
DA:582,21
DA:583,21
DA:584,3
DA:585,18
DA:586,3
DA:587,15
DA:591,3
DA:594,3
DA:595,3
DA:596,3
DA:600,3
DA:601,0
DA:602,3
DA:605,0
DA:606,0
DA:608,0
DA:610,0
DA:611,0
DA:612,0
DA:613,0
DA:614,0
DA:615,0
DA:618,3
DA:619,3
DA:635,0
DA:636,0
DA:637,0
DA:646,0
DA:647,0
DA:648,0
DA:654,0
DA:655,0
DA:656,0
DA:662,0
DA:663,0
DA:664,0
DA:670,0
DA:671,0
DA:672,0
DA:678,0
DA:679,0
DA:680,0
DA:686,0
DA:687,0
DA:688,0
DA:694,0
DA:695,0
DA:696,0
DA:702,0
DA:703,0
DA:704,0
DA:706,0
DA:708,0
BRF:0
BRH:0
LF:373
LH:170
end_of_record
SF:/Users/dan/dev/simple_json_server/simple_json_server/src/test_actor.rs
FN:50,_RNCNvNtNtCs3bT7G2JF9mh_18simple_json_server10test_actor5testss_15test_add_method0B7_
FN:66,_RNCNvNtNtCs3bT7G2JF9mh_18simple_json_server10test_actor5testss_17test_greet_method0B7_
FN:90,_RNCNvNtNtCs3bT7G2JF9mh_18simple_json_server10test_actor5testss_17test_invalid_json0B7_
FN:82,_RNCNvNtNtCs3bT7G2JF9mh_18simple_json_server10test_actor5testss_19test_unknown_method0B7_
FN:74,_RNCNvNtNtCs3bT7G2JF9mh_18simple_json_server10test_actor5testss_21test_no_params_method0B7_
FN:58,_RNCNvNtNtCs3bT7G2JF9mh_18simple_json_server10test_actor5testss_23test_get_counter_method0B7_
FN:9,_RNvMNtCs3bT7G2JF9mh_18simple_json_server10test_actorNtB2_9TestActor3new
FN:20,_RNvMs1_NtCs3bT7G2JF9mh_18simple_json_server10test_actorNtB5_9TestActor11get_counter
FN:16,_RNvMs1_NtCs3bT7G2JF9mh_18simple_json_server10test_actorNtB5_9TestActor3add
FN:24,_RNvMs1_NtCs3bT7G2JF9mh_18simple_json_server10test_actorNtB5_9TestActor5greet
FN:28,_RNvMs1_NtCs3bT7G2JF9mh_18simple_json_server10test_actorNtB5_9TestActor9no_params
FN:34,_RNCNvMs1_NtCs3bT7G2JF9mh_18simple_json_server10test_actorNtB7_9TestActor14private_method0B9_
FN:40,_RNvMs1_NtCs3bT7G2JF9mh_18simple_json_server10test_actorNtB5_9TestActor11sync_method
FN:34,_RNvMs1_NtCs3bT7G2JF9mh_18simple_json_server10test_actorNtB5_9TestActor14private_method
FN:20,_RNCNvMs1_NtCs3bT7G2JF9mh_18simple_json_server10test_actorNtB7_9TestActor11get_counter0B9_
FN:16,_RNCNvMs1_NtCs3bT7G2JF9mh_18simple_json_server10test_actorNtB7_9TestActor3add0B9_
FN:24,_RNCNvMs1_NtCs3bT7G2JF9mh_18simple_json_server10test_actorNtB7_9TestActor5greet0B9_
FN:28,_RNCNvMs1_NtCs3bT7G2JF9mh_18simple_json_server10test_actorNtB7_9TestActor9no_params0B9_
FN:50,_RNvNtNtCs3bT7G2JF9mh_18simple_json_server10test_actor5testss_15test_add_method
FN:66,_RNvNtNtCs3bT7G2JF9mh_18simple_json_server10test_actor5testss_17test_greet_method
FN:90,_RNvNtNtCs3bT7G2JF9mh_18simple_json_server10test_actor5testss_17test_invalid_json
FN:82,_RNvNtNtCs3bT7G2JF9mh_18simple_json_server10test_actor5testss_19test_unknown_method
FN:74,_RNvNtNtCs3bT7G2JF9mh_18simple_json_server10test_actor5testss_21test_no_params_method
FN:58,_RNvNtNtCs3bT7G2JF9mh_18simple_json_server10test_actor5testss_23test_get_counter_method
FNDA:1,_RNCNvNtNtCs3bT7G2JF9mh_18simple_json_server10test_actor5testss_15test_add_method0B7_
FNDA:1,_RNCNvNtNtCs3bT7G2JF9mh_18simple_json_server10test_actor5testss_17test_greet_method0B7_
FNDA:1,_RNCNvNtNtCs3bT7G2JF9mh_18simple_json_server10test_actor5testss_17test_invalid_json0B7_
FNDA:1,_RNCNvNtNtCs3bT7G2JF9mh_18simple_json_server10test_actor5testss_19test_unknown_method0B7_
FNDA:1,_RNCNvNtNtCs3bT7G2JF9mh_18simple_json_server10test_actor5testss_21test_no_params_method0B7_
FNDA:1,_RNCNvNtNtCs3bT7G2JF9mh_18simple_json_server10test_actor5testss_23test_get_counter_method0B7_
FNDA:6,_RNvMNtCs3bT7G2JF9mh_18simple_json_server10test_actorNtB2_9TestActor3new
FNDA:1,_RNvMs1_NtCs3bT7G2JF9mh_18simple_json_server10test_actorNtB5_9TestActor11get_counter
FNDA:1,_RNvMs1_NtCs3bT7G2JF9mh_18simple_json_server10test_actorNtB5_9TestActor3add
FNDA:1,_RNvMs1_NtCs3bT7G2JF9mh_18simple_json_server10test_actorNtB5_9TestActor5greet
FNDA:1,_RNvMs1_NtCs3bT7G2JF9mh_18simple_json_server10test_actorNtB5_9TestActor9no_params
FNDA:0,_RNCNvMs1_NtCs3bT7G2JF9mh_18simple_json_server10test_actorNtB7_9TestActor14private_method0B9_
FNDA:0,_RNvMs1_NtCs3bT7G2JF9mh_18simple_json_server10test_actorNtB5_9TestActor11sync_method
FNDA:0,_RNvMs1_NtCs3bT7G2JF9mh_18simple_json_server10test_actorNtB5_9TestActor14private_method
FNDA:1,_RNCNvMs1_NtCs3bT7G2JF9mh_18simple_json_server10test_actorNtB7_9TestActor11get_counter0B9_
FNDA:1,_RNCNvMs1_NtCs3bT7G2JF9mh_18simple_json_server10test_actorNtB7_9TestActor3add0B9_
FNDA:1,_RNCNvMs1_NtCs3bT7G2JF9mh_18simple_json_server10test_actorNtB7_9TestActor5greet0B9_
FNDA:1,_RNCNvMs1_NtCs3bT7G2JF9mh_18simple_json_server10test_actorNtB7_9TestActor9no_params0B9_
FNDA:1,_RNvNtNtCs3bT7G2JF9mh_18simple_json_server10test_actor5testss_15test_add_method
FNDA:1,_RNvNtNtCs3bT7G2JF9mh_18simple_json_server10test_actor5testss_17test_greet_method
FNDA:1,_RNvNtNtCs3bT7G2JF9mh_18simple_json_server10test_actor5testss_17test_invalid_json
FNDA:1,_RNvNtNtCs3bT7G2JF9mh_18simple_json_server10test_actor5testss_19test_unknown_method
FNDA:1,_RNvNtNtCs3bT7G2JF9mh_18simple_json_server10test_actor5testss_21test_no_params_method
FNDA:1,_RNvNtNtCs3bT7G2JF9mh_18simple_json_server10test_actor5testss_23test_get_counter_method
FNF:24
FNH:21
DA:9,6
DA:10,6
DA:11,6
DA:16,1
DA:17,1
DA:18,1
DA:20,1
DA:21,1
DA:22,1
DA:24,1
DA:25,1
DA:26,1
DA:28,1
DA:29,1
DA:30,1
DA:34,0
DA:35,0
DA:36,0
DA:40,0
DA:41,0
DA:42,0
DA:50,1
DA:51,1
DA:52,1
DA:53,1
DA:54,1
DA:55,1
DA:58,1
DA:59,1
DA:60,1
DA:61,1
DA:62,1
DA:63,1
DA:66,1
DA:67,1
DA:68,1
DA:69,1
DA:70,1
DA:71,1
DA:74,1
DA:75,1
DA:76,1
DA:77,1
DA:78,1
DA:79,1
DA:82,1
DA:83,1
DA:84,1
DA:85,1
DA:86,1
DA:87,1
DA:90,1
DA:91,1
DA:92,1
DA:93,1
DA:94,1
DA:95,1
BRF:0
BRH:0
LF:74
LH:67
end_of_record
SF:/Users/dan/dev/simple_json_server/simple_json_server/src/tls.rs
FN:20,_RINvMNtCsd1x0sA5zCia_18simple_json_server3tlsNtB3_9TlsConfig3newNtNtCsiTraAjBDcu4_5alloc6string6StringB10_ECsi7laPgELpvk_16integration_test
FN:30,_RNCNvMNtCsd1x0sA5zCia_18simple_json_server3tlsNtB4_9TlsConfig18load_server_config0Csi7laPgELpvk_16integration_test
FN:28,_RNvMNtCsd1x0sA5zCia_18simple_json_server3tlsNtB2_9TlsConfig18load_server_config
FN:20,_RINvMNtCsd1x0sA5zCia_18simple_json_server3tlsNtB3_9TlsConfig3newppEB5_
FN:30,_RNCNvMNtCsd1x0sA5zCia_18simple_json_server3tlsNtB4_9TlsConfig18load_server_config0B6_
FN:20,_RINvMNtCs3bT7G2JF9mh_18simple_json_server3tlsNtB3_9TlsConfig3newppEB5_
FN:30,_RNCNvMNtCs3bT7G2JF9mh_18simple_json_server3tlsNtB4_9TlsConfig18load_server_config0B6_
FN:28,_RNvMNtCs3bT7G2JF9mh_18simple_json_server3tlsNtB2_9TlsConfig18load_server_config
FNDA:1,_RINvMNtCsd1x0sA5zCia_18simple_json_server3tlsNtB3_9TlsConfig3newNtNtCsiTraAjBDcu4_5alloc6string6StringB10_ECsi7laPgELpvk_16integration_test
FNDA:1,_RNCNvMNtCsd1x0sA5zCia_18simple_json_server3tlsNtB4_9TlsConfig18load_server_config0Csi7laPgELpvk_16integration_test
FNDA:1,_RNvMNtCsd1x0sA5zCia_18simple_json_server3tlsNtB2_9TlsConfig18load_server_config
FNDA:0,_RINvMNtCsd1x0sA5zCia_18simple_json_server3tlsNtB3_9TlsConfig3newppEB5_
FNDA:0,_RNCNvMNtCsd1x0sA5zCia_18simple_json_server3tlsNtB4_9TlsConfig18load_server_config0B6_
FNDA:0,_RINvMNtCs3bT7G2JF9mh_18simple_json_server3tlsNtB3_9TlsConfig3newppEB5_
FNDA:0,_RNCNvMNtCs3bT7G2JF9mh_18simple_json_server3tlsNtB4_9TlsConfig18load_server_config0B6_
FNDA:0,_RNvMNtCs3bT7G2JF9mh_18simple_json_server3tlsNtB2_9TlsConfig18load_server_config
FNF:3
FNH:3
DA:20,1
DA:21,1
DA:22,1
DA:23,1
DA:24,1
DA:25,1
DA:28,1
DA:29,1
DA:30,1
DA:37,1
DA:38,1
DA:39,1
DA:40,1
DA:41,1
DA:42,1
DA:43,1
DA:44,1
DA:47,1
DA:48,1
DA:49,1
DA:50,1
DA:51,1
DA:53,1
DA:54,0
DA:55,1
DA:57,1
DA:60,1
DA:61,1
DA:62,1
DA:63,1
DA:65,1
DA:66,1
BRF:0
BRH:0
LF:33
LH:32
end_of_record